
./a.out:     ファイル形式 elf64-x86-64


セクション .init の逆アセンブル:

00000000004018f8 <_init>:
  4018f8:	48 83 ec 08          	sub    $0x8,%rsp
  4018fc:	48 8b 05 f5 76 22 00 	mov    0x2276f5(%rip),%rax        # 628ff8 <_DYNAMIC+0x1f0>
  401903:	48 85 c0             	test   %rax,%rax
  401906:	74 05                	je     40190d <_init+0x15>
  401908:	e8 93 05 00 00       	callq  401ea0 <dlerror@plt+0x10>
  40190d:	48 83 c4 08          	add    $0x8,%rsp
  401911:	c3                   	retq   

セクション .plt の逆アセンブル:

0000000000401920 <getenv@plt-0x10>:
  401920:	ff 35 e2 76 22 00    	pushq  0x2276e2(%rip)        # 629008 <_GLOBAL_OFFSET_TABLE_+0x8>
  401926:	ff 25 e4 76 22 00    	jmpq   *0x2276e4(%rip)        # 629010 <_GLOBAL_OFFSET_TABLE_+0x10>
  40192c:	0f 1f 40 00          	nopl   0x0(%rax)

0000000000401930 <getenv@plt>:
  401930:	ff 25 e2 76 22 00    	jmpq   *0x2276e2(%rip)        # 629018 <_GLOBAL_OFFSET_TABLE_+0x18>
  401936:	68 00 00 00 00       	pushq  $0x0
  40193b:	e9 e0 ff ff ff       	jmpq   401920 <_init+0x28>

0000000000401940 <sigprocmask@plt>:
  401940:	ff 25 da 76 22 00    	jmpq   *0x2276da(%rip)        # 629020 <_GLOBAL_OFFSET_TABLE_+0x20>
  401946:	68 01 00 00 00       	pushq  $0x1
  40194b:	e9 d0 ff ff ff       	jmpq   401920 <_init+0x28>

0000000000401950 <__snprintf_chk@plt>:
  401950:	ff 25 d2 76 22 00    	jmpq   *0x2276d2(%rip)        # 629028 <_GLOBAL_OFFSET_TABLE_+0x28>
  401956:	68 02 00 00 00       	pushq  $0x2
  40195b:	e9 c0 ff ff ff       	jmpq   401920 <_init+0x28>

0000000000401960 <free@plt>:
  401960:	ff 25 ca 76 22 00    	jmpq   *0x2276ca(%rip)        # 629030 <_GLOBAL_OFFSET_TABLE_+0x30>
  401966:	68 03 00 00 00       	pushq  $0x3
  40196b:	e9 b0 ff ff ff       	jmpq   401920 <_init+0x28>

0000000000401970 <__errno_location@plt>:
  401970:	ff 25 c2 76 22 00    	jmpq   *0x2276c2(%rip)        # 629038 <_GLOBAL_OFFSET_TABLE_+0x38>
  401976:	68 04 00 00 00       	pushq  $0x4
  40197b:	e9 a0 ff ff ff       	jmpq   401920 <_init+0x28>

0000000000401980 <ldexp@plt>:
  401980:	ff 25 ba 76 22 00    	jmpq   *0x2276ba(%rip)        # 629040 <_GLOBAL_OFFSET_TABLE_+0x40>
  401986:	68 05 00 00 00       	pushq  $0x5
  40198b:	e9 90 ff ff ff       	jmpq   401920 <_init+0x28>

0000000000401990 <unlink@plt>:
  401990:	ff 25 b2 76 22 00    	jmpq   *0x2276b2(%rip)        # 629048 <_GLOBAL_OFFSET_TABLE_+0x48>
  401996:	68 06 00 00 00       	pushq  $0x6
  40199b:	e9 80 ff ff ff       	jmpq   401920 <_init+0x28>

00000000004019a0 <isatty@plt>:
  4019a0:	ff 25 aa 76 22 00    	jmpq   *0x2276aa(%rip)        # 629050 <_GLOBAL_OFFSET_TABLE_+0x50>
  4019a6:	68 07 00 00 00       	pushq  $0x7
  4019ab:	e9 70 ff ff ff       	jmpq   401920 <_init+0x28>

00000000004019b0 <sigaction@plt>:
  4019b0:	ff 25 a2 76 22 00    	jmpq   *0x2276a2(%rip)        # 629058 <_GLOBAL_OFFSET_TABLE_+0x58>
  4019b6:	68 08 00 00 00       	pushq  $0x8
  4019bb:	e9 60 ff ff ff       	jmpq   401920 <_init+0x28>

00000000004019c0 <strtod@plt>:
  4019c0:	ff 25 9a 76 22 00    	jmpq   *0x22769a(%rip)        # 629060 <_GLOBAL_OFFSET_TABLE_+0x60>
  4019c6:	68 09 00 00 00       	pushq  $0x9
  4019cb:	e9 50 ff ff ff       	jmpq   401920 <_init+0x28>

00000000004019d0 <exp@plt>:
  4019d0:	ff 25 92 76 22 00    	jmpq   *0x227692(%rip)        # 629068 <_GLOBAL_OFFSET_TABLE_+0x68>
  4019d6:	68 0a 00 00 00       	pushq  $0xa
  4019db:	e9 40 ff ff ff       	jmpq   401920 <_init+0x28>

00000000004019e0 <readlink@plt>:
  4019e0:	ff 25 8a 76 22 00    	jmpq   *0x22768a(%rip)        # 629070 <_GLOBAL_OFFSET_TABLE_+0x70>
  4019e6:	68 0b 00 00 00       	pushq  $0xb
  4019eb:	e9 30 ff ff ff       	jmpq   401920 <_init+0x28>

00000000004019f0 <fcntl@plt>:
  4019f0:	ff 25 82 76 22 00    	jmpq   *0x227682(%rip)        # 629078 <_GLOBAL_OFFSET_TABLE_+0x78>
  4019f6:	68 0c 00 00 00       	pushq  $0xc
  4019fb:	e9 20 ff ff ff       	jmpq   401920 <_init+0x28>

0000000000401a00 <write@plt>:
  401a00:	ff 25 7a 76 22 00    	jmpq   *0x22767a(%rip)        # 629080 <_GLOBAL_OFFSET_TABLE_+0x80>
  401a06:	68 0d 00 00 00       	pushq  $0xd
  401a0b:	e9 10 ff ff ff       	jmpq   401920 <_init+0x28>

0000000000401a10 <getpid@plt>:
  401a10:	ff 25 72 76 22 00    	jmpq   *0x227672(%rip)        # 629088 <_GLOBAL_OFFSET_TABLE_+0x88>
  401a16:	68 0e 00 00 00       	pushq  $0xe
  401a1b:	e9 00 ff ff ff       	jmpq   401920 <_init+0x28>

0000000000401a20 <atan@plt>:
  401a20:	ff 25 6a 76 22 00    	jmpq   *0x22766a(%rip)        # 629090 <_GLOBAL_OFFSET_TABLE_+0x90>
  401a26:	68 0f 00 00 00       	pushq  $0xf
  401a2b:	e9 f0 fe ff ff       	jmpq   401920 <_init+0x28>

0000000000401a30 <__xstat64@plt>:
  401a30:	ff 25 62 76 22 00    	jmpq   *0x227662(%rip)        # 629098 <_GLOBAL_OFFSET_TABLE_+0x98>
  401a36:	68 10 00 00 00       	pushq  $0x10
  401a3b:	e9 e0 fe ff ff       	jmpq   401920 <_init+0x28>

0000000000401a40 <opendir@plt>:
  401a40:	ff 25 5a 76 22 00    	jmpq   *0x22765a(%rip)        # 6290a0 <_GLOBAL_OFFSET_TABLE_+0xa0>
  401a46:	68 11 00 00 00       	pushq  $0x11
  401a4b:	e9 d0 fe ff ff       	jmpq   401920 <_init+0x28>

0000000000401a50 <strlen@plt>:
  401a50:	ff 25 52 76 22 00    	jmpq   *0x227652(%rip)        # 6290a8 <_GLOBAL_OFFSET_TABLE_+0xa8>
  401a56:	68 12 00 00 00       	pushq  $0x12
  401a5b:	e9 c0 fe ff ff       	jmpq   401920 <_init+0x28>

0000000000401a60 <chdir@plt>:
  401a60:	ff 25 4a 76 22 00    	jmpq   *0x22764a(%rip)        # 6290b0 <_GLOBAL_OFFSET_TABLE_+0xb0>
  401a66:	68 13 00 00 00       	pushq  $0x13
  401a6b:	e9 b0 fe ff ff       	jmpq   401920 <_init+0x28>

0000000000401a70 <__stack_chk_fail@plt>:
  401a70:	ff 25 42 76 22 00    	jmpq   *0x227642(%rip)        # 6290b8 <_GLOBAL_OFFSET_TABLE_+0xb8>
  401a76:	68 14 00 00 00       	pushq  $0x14
  401a7b:	e9 a0 fe ff ff       	jmpq   401920 <_init+0x28>

0000000000401a80 <system@plt>:
  401a80:	ff 25 3a 76 22 00    	jmpq   *0x22763a(%rip)        # 6290c0 <_GLOBAL_OFFSET_TABLE_+0xc0>
  401a86:	68 15 00 00 00       	pushq  $0x15
  401a8b:	e9 90 fe ff ff       	jmpq   401920 <_init+0x28>

0000000000401a90 <modf@plt>:
  401a90:	ff 25 32 76 22 00    	jmpq   *0x227632(%rip)        # 6290c8 <_GLOBAL_OFFSET_TABLE_+0xc8>
  401a96:	68 16 00 00 00       	pushq  $0x16
  401a9b:	e9 80 fe ff ff       	jmpq   401920 <_init+0x28>

0000000000401aa0 <gettimeofday@plt>:
  401aa0:	ff 25 2a 76 22 00    	jmpq   *0x22762a(%rip)        # 6290d0 <_GLOBAL_OFFSET_TABLE_+0xd0>
  401aa6:	68 17 00 00 00       	pushq  $0x17
  401aab:	e9 70 fe ff ff       	jmpq   401920 <_init+0x28>

0000000000401ab0 <fputs@plt>:
  401ab0:	ff 25 22 76 22 00    	jmpq   *0x227622(%rip)        # 6290d8 <_GLOBAL_OFFSET_TABLE_+0xd8>
  401ab6:	68 18 00 00 00       	pushq  $0x18
  401abb:	e9 60 fe ff ff       	jmpq   401920 <_init+0x28>

0000000000401ac0 <memset@plt>:
  401ac0:	ff 25 1a 76 22 00    	jmpq   *0x22761a(%rip)        # 6290e0 <_GLOBAL_OFFSET_TABLE_+0xe0>
  401ac6:	68 19 00 00 00       	pushq  $0x19
  401acb:	e9 50 fe ff ff       	jmpq   401920 <_init+0x28>

0000000000401ad0 <pow@plt>:
  401ad0:	ff 25 12 76 22 00    	jmpq   *0x227612(%rip)        # 6290e8 <_GLOBAL_OFFSET_TABLE_+0xe8>
  401ad6:	68 1a 00 00 00       	pushq  $0x1a
  401adb:	e9 40 fe ff ff       	jmpq   401920 <_init+0x28>

0000000000401ae0 <getcwd@plt>:
  401ae0:	ff 25 0a 76 22 00    	jmpq   *0x22760a(%rip)        # 6290f0 <_GLOBAL_OFFSET_TABLE_+0xf0>
  401ae6:	68 1b 00 00 00       	pushq  $0x1b
  401aeb:	e9 30 fe ff ff       	jmpq   401920 <_init+0x28>

0000000000401af0 <log@plt>:
  401af0:	ff 25 02 76 22 00    	jmpq   *0x227602(%rip)        # 6290f8 <_GLOBAL_OFFSET_TABLE_+0xf8>
  401af6:	68 1c 00 00 00       	pushq  $0x1c
  401afb:	e9 20 fe ff ff       	jmpq   401920 <_init+0x28>

0000000000401b00 <close@plt>:
  401b00:	ff 25 fa 75 22 00    	jmpq   *0x2275fa(%rip)        # 629100 <_GLOBAL_OFFSET_TABLE_+0x100>
  401b06:	68 1d 00 00 00       	pushq  $0x1d
  401b0b:	e9 10 fe ff ff       	jmpq   401920 <_init+0x28>

0000000000401b10 <log1p@plt>:
  401b10:	ff 25 f2 75 22 00    	jmpq   *0x2275f2(%rip)        # 629108 <_GLOBAL_OFFSET_TABLE_+0x108>
  401b16:	68 1e 00 00 00       	pushq  $0x1e
  401b1b:	e9 00 fe ff ff       	jmpq   401920 <_init+0x28>

0000000000401b20 <fmod@plt>:
  401b20:	ff 25 ea 75 22 00    	jmpq   *0x2275ea(%rip)        # 629110 <_GLOBAL_OFFSET_TABLE_+0x110>
  401b26:	68 1f 00 00 00       	pushq  $0x1f
  401b2b:	e9 f0 fd ff ff       	jmpq   401920 <_init+0x28>

0000000000401b30 <closedir@plt>:
  401b30:	ff 25 e2 75 22 00    	jmpq   *0x2275e2(%rip)        # 629118 <_GLOBAL_OFFSET_TABLE_+0x118>
  401b36:	68 20 00 00 00       	pushq  $0x20
  401b3b:	e9 e0 fd ff ff       	jmpq   401920 <_init+0x28>

0000000000401b40 <cos@plt>:
  401b40:	ff 25 da 75 22 00    	jmpq   *0x2275da(%rip)        # 629120 <_GLOBAL_OFFSET_TABLE_+0x120>
  401b46:	68 21 00 00 00       	pushq  $0x21
  401b4b:	e9 d0 fd ff ff       	jmpq   401920 <_init+0x28>

0000000000401b50 <fputc@plt>:
  401b50:	ff 25 d2 75 22 00    	jmpq   *0x2275d2(%rip)        # 629128 <_GLOBAL_OFFSET_TABLE_+0x128>
  401b56:	68 22 00 00 00       	pushq  $0x22
  401b5b:	e9 c0 fd ff ff       	jmpq   401920 <_init+0x28>

0000000000401b60 <acos@plt>:
  401b60:	ff 25 ca 75 22 00    	jmpq   *0x2275ca(%rip)        # 629130 <_GLOBAL_OFFSET_TABLE_+0x130>
  401b66:	68 23 00 00 00       	pushq  $0x23
  401b6b:	e9 b0 fd ff ff       	jmpq   401920 <_init+0x28>

0000000000401b70 <read@plt>:
  401b70:	ff 25 c2 75 22 00    	jmpq   *0x2275c2(%rip)        # 629138 <_GLOBAL_OFFSET_TABLE_+0x138>
  401b76:	68 24 00 00 00       	pushq  $0x24
  401b7b:	e9 a0 fd ff ff       	jmpq   401920 <_init+0x28>

0000000000401b80 <__libc_start_main@plt>:
  401b80:	ff 25 ba 75 22 00    	jmpq   *0x2275ba(%rip)        # 629140 <_GLOBAL_OFFSET_TABLE_+0x140>
  401b86:	68 25 00 00 00       	pushq  $0x25
  401b8b:	e9 90 fd ff ff       	jmpq   401920 <_init+0x28>

0000000000401b90 <memcmp@plt>:
  401b90:	ff 25 b2 75 22 00    	jmpq   *0x2275b2(%rip)        # 629148 <_GLOBAL_OFFSET_TABLE_+0x148>
  401b96:	68 26 00 00 00       	pushq  $0x26
  401b9b:	e9 80 fd ff ff       	jmpq   401920 <_init+0x28>

0000000000401ba0 <frexp@plt>:
  401ba0:	ff 25 aa 75 22 00    	jmpq   *0x2275aa(%rip)        # 629150 <_GLOBAL_OFFSET_TABLE_+0x150>
  401ba6:	68 27 00 00 00       	pushq  $0x27
  401bab:	e9 70 fd ff ff       	jmpq   401920 <_init+0x28>

0000000000401bb0 <calloc@plt>:
  401bb0:	ff 25 a2 75 22 00    	jmpq   *0x2275a2(%rip)        # 629158 <_GLOBAL_OFFSET_TABLE_+0x158>
  401bb6:	68 28 00 00 00       	pushq  $0x28
  401bbb:	e9 60 fd ff ff       	jmpq   401920 <_init+0x28>

0000000000401bc0 <strcmp@plt>:
  401bc0:	ff 25 9a 75 22 00    	jmpq   *0x22759a(%rip)        # 629160 <_GLOBAL_OFFSET_TABLE_+0x160>
  401bc6:	68 29 00 00 00       	pushq  $0x29
  401bcb:	e9 50 fd ff ff       	jmpq   401920 <_init+0x28>

0000000000401bd0 <log10@plt>:
  401bd0:	ff 25 92 75 22 00    	jmpq   *0x227592(%rip)        # 629168 <_GLOBAL_OFFSET_TABLE_+0x168>
  401bd6:	68 2a 00 00 00       	pushq  $0x2a
  401bdb:	e9 40 fd ff ff       	jmpq   401920 <_init+0x28>

0000000000401be0 <__memcpy_chk@plt>:
  401be0:	ff 25 8a 75 22 00    	jmpq   *0x22758a(%rip)        # 629170 <_GLOBAL_OFFSET_TABLE_+0x170>
  401be6:	68 2b 00 00 00       	pushq  $0x2b
  401beb:	e9 30 fd ff ff       	jmpq   401920 <_init+0x28>

0000000000401bf0 <sigemptyset@plt>:
  401bf0:	ff 25 82 75 22 00    	jmpq   *0x227582(%rip)        # 629178 <_GLOBAL_OFFSET_TABLE_+0x178>
  401bf6:	68 2c 00 00 00       	pushq  $0x2c
  401bfb:	e9 20 fd ff ff       	jmpq   401920 <_init+0x28>

0000000000401c00 <strtol@plt>:
  401c00:	ff 25 7a 75 22 00    	jmpq   *0x22757a(%rip)        # 629180 <_GLOBAL_OFFSET_TABLE_+0x180>
  401c06:	68 2d 00 00 00       	pushq  $0x2d
  401c0b:	e9 10 fd ff ff       	jmpq   401920 <_init+0x28>

0000000000401c10 <memcpy@plt>:
  401c10:	ff 25 72 75 22 00    	jmpq   *0x227572(%rip)        # 629188 <_GLOBAL_OFFSET_TABLE_+0x188>
  401c16:	68 2e 00 00 00       	pushq  $0x2e
  401c1b:	e9 00 fd ff ff       	jmpq   401920 <_init+0x28>

0000000000401c20 <expm1@plt>:
  401c20:	ff 25 6a 75 22 00    	jmpq   *0x22756a(%rip)        # 629190 <_GLOBAL_OFFSET_TABLE_+0x190>
  401c26:	68 2f 00 00 00       	pushq  $0x2f
  401c2b:	e9 f0 fc ff ff       	jmpq   401920 <_init+0x28>

0000000000401c30 <fmin@plt>:
  401c30:	ff 25 62 75 22 00    	jmpq   *0x227562(%rip)        # 629198 <_GLOBAL_OFFSET_TABLE_+0x198>
  401c36:	68 30 00 00 00       	pushq  $0x30
  401c3b:	e9 e0 fc ff ff       	jmpq   401920 <_init+0x28>

0000000000401c40 <cosh@plt>:
  401c40:	ff 25 5a 75 22 00    	jmpq   *0x22755a(%rip)        # 6291a0 <_GLOBAL_OFFSET_TABLE_+0x1a0>
  401c46:	68 31 00 00 00       	pushq  $0x31
  401c4b:	e9 d0 fc ff ff       	jmpq   401920 <_init+0x28>

0000000000401c50 <getrlimit64@plt>:
  401c50:	ff 25 52 75 22 00    	jmpq   *0x227552(%rip)        # 6291a8 <_GLOBAL_OFFSET_TABLE_+0x1a8>
  401c56:	68 32 00 00 00       	pushq  $0x32
  401c5b:	e9 c0 fc ff ff       	jmpq   401920 <_init+0x28>

0000000000401c60 <dlopen@plt>:
  401c60:	ff 25 4a 75 22 00    	jmpq   *0x22754a(%rip)        # 6291b0 <_GLOBAL_OFFSET_TABLE_+0x1b0>
  401c66:	68 33 00 00 00       	pushq  $0x33
  401c6b:	e9 b0 fc ff ff       	jmpq   401920 <_init+0x28>

0000000000401c70 <sinh@plt>:
  401c70:	ff 25 42 75 22 00    	jmpq   *0x227542(%rip)        # 6291b8 <_GLOBAL_OFFSET_TABLE_+0x1b8>
  401c76:	68 34 00 00 00       	pushq  $0x34
  401c7b:	e9 a0 fc ff ff       	jmpq   401920 <_init+0x28>

0000000000401c80 <mmap64@plt>:
  401c80:	ff 25 3a 75 22 00    	jmpq   *0x22753a(%rip)        # 6291c0 <_GLOBAL_OFFSET_TABLE_+0x1c0>
  401c86:	68 35 00 00 00       	pushq  $0x35
  401c8b:	e9 90 fc ff ff       	jmpq   401920 <_init+0x28>

0000000000401c90 <malloc@plt>:
  401c90:	ff 25 32 75 22 00    	jmpq   *0x227532(%rip)        # 6291c8 <_GLOBAL_OFFSET_TABLE_+0x1c8>
  401c96:	68 36 00 00 00       	pushq  $0x36
  401c9b:	e9 80 fc ff ff       	jmpq   401920 <_init+0x28>

0000000000401ca0 <fflush@plt>:
  401ca0:	ff 25 2a 75 22 00    	jmpq   *0x22752a(%rip)        # 6291d0 <_GLOBAL_OFFSET_TABLE_+0x1d0>
  401ca6:	68 37 00 00 00       	pushq  $0x37
  401cab:	e9 70 fc ff ff       	jmpq   401920 <_init+0x28>

0000000000401cb0 <tan@plt>:
  401cb0:	ff 25 22 75 22 00    	jmpq   *0x227522(%rip)        # 6291d8 <_GLOBAL_OFFSET_TABLE_+0x1d8>
  401cb6:	68 38 00 00 00       	pushq  $0x38
  401cbb:	e9 60 fc ff ff       	jmpq   401920 <_init+0x28>

0000000000401cc0 <__isoc99_sscanf@plt>:
  401cc0:	ff 25 1a 75 22 00    	jmpq   *0x22751a(%rip)        # 6291e0 <_GLOBAL_OFFSET_TABLE_+0x1e0>
  401cc6:	68 39 00 00 00       	pushq  $0x39
  401ccb:	e9 50 fc ff ff       	jmpq   401920 <_init+0x28>

0000000000401cd0 <atan2@plt>:
  401cd0:	ff 25 12 75 22 00    	jmpq   *0x227512(%rip)        # 6291e8 <_GLOBAL_OFFSET_TABLE_+0x1e8>
  401cd6:	68 3a 00 00 00       	pushq  $0x3a
  401cdb:	e9 40 fc ff ff       	jmpq   401920 <_init+0x28>

0000000000401ce0 <__vsnprintf_chk@plt>:
  401ce0:	ff 25 0a 75 22 00    	jmpq   *0x22750a(%rip)        # 6291f0 <_GLOBAL_OFFSET_TABLE_+0x1f0>
  401ce6:	68 3b 00 00 00       	pushq  $0x3b
  401ceb:	e9 30 fc ff ff       	jmpq   401920 <_init+0x28>

0000000000401cf0 <dlclose@plt>:
  401cf0:	ff 25 02 75 22 00    	jmpq   *0x227502(%rip)        # 6291f8 <_GLOBAL_OFFSET_TABLE_+0x1f8>
  401cf6:	68 3c 00 00 00       	pushq  $0x3c
  401cfb:	e9 20 fc ff ff       	jmpq   401920 <_init+0x28>

0000000000401d00 <realloc@plt>:
  401d00:	ff 25 fa 74 22 00    	jmpq   *0x2274fa(%rip)        # 629200 <_GLOBAL_OFFSET_TABLE_+0x200>
  401d06:	68 3d 00 00 00       	pushq  $0x3d
  401d0b:	e9 10 fc ff ff       	jmpq   401920 <_init+0x28>

0000000000401d10 <munmap@plt>:
  401d10:	ff 25 f2 74 22 00    	jmpq   *0x2274f2(%rip)        # 629208 <_GLOBAL_OFFSET_TABLE_+0x208>
  401d16:	68 3e 00 00 00       	pushq  $0x3e
  401d1b:	e9 00 fc ff ff       	jmpq   401920 <_init+0x28>

0000000000401d20 <open64@plt>:
  401d20:	ff 25 ea 74 22 00    	jmpq   *0x2274ea(%rip)        # 629210 <_GLOBAL_OFFSET_TABLE_+0x210>
  401d26:	68 3f 00 00 00       	pushq  $0x3f
  401d2b:	e9 f0 fb ff ff       	jmpq   401920 <_init+0x28>

0000000000401d30 <memmove@plt>:
  401d30:	ff 25 e2 74 22 00    	jmpq   *0x2274e2(%rip)        # 629218 <_GLOBAL_OFFSET_TABLE_+0x218>
  401d36:	68 40 00 00 00       	pushq  $0x40
  401d3b:	e9 e0 fb ff ff       	jmpq   401920 <_init+0x28>

0000000000401d40 <readdir64@plt>:
  401d40:	ff 25 da 74 22 00    	jmpq   *0x2274da(%rip)        # 629220 <_GLOBAL_OFFSET_TABLE_+0x220>
  401d46:	68 41 00 00 00       	pushq  $0x41
  401d4b:	e9 d0 fb ff ff       	jmpq   401920 <_init+0x28>

0000000000401d50 <sigdelset@plt>:
  401d50:	ff 25 d2 74 22 00    	jmpq   *0x2274d2(%rip)        # 629228 <_GLOBAL_OFFSET_TABLE_+0x228>
  401d56:	68 42 00 00 00       	pushq  $0x42
  401d5b:	e9 c0 fb ff ff       	jmpq   401920 <_init+0x28>

0000000000401d60 <getrusage@plt>:
  401d60:	ff 25 ca 74 22 00    	jmpq   *0x2274ca(%rip)        # 629230 <_GLOBAL_OFFSET_TABLE_+0x230>
  401d66:	68 43 00 00 00       	pushq  $0x43
  401d6b:	e9 b0 fb ff ff       	jmpq   401920 <_init+0x28>

0000000000401d70 <rename@plt>:
  401d70:	ff 25 c2 74 22 00    	jmpq   *0x2274c2(%rip)        # 629238 <_GLOBAL_OFFSET_TABLE_+0x238>
  401d76:	68 44 00 00 00       	pushq  $0x44
  401d7b:	e9 a0 fb ff ff       	jmpq   401920 <_init+0x28>

0000000000401d80 <sin@plt>:
  401d80:	ff 25 ba 74 22 00    	jmpq   *0x2274ba(%rip)        # 629240 <_GLOBAL_OFFSET_TABLE_+0x240>
  401d86:	68 45 00 00 00       	pushq  $0x45
  401d8b:	e9 90 fb ff ff       	jmpq   401920 <_init+0x28>

0000000000401d90 <floor@plt>:
  401d90:	ff 25 b2 74 22 00    	jmpq   *0x2274b2(%rip)        # 629248 <_GLOBAL_OFFSET_TABLE_+0x248>
  401d96:	68 46 00 00 00       	pushq  $0x46
  401d9b:	e9 80 fb ff ff       	jmpq   401920 <_init+0x28>

0000000000401da0 <tanh@plt>:
  401da0:	ff 25 aa 74 22 00    	jmpq   *0x2274aa(%rip)        # 629250 <_GLOBAL_OFFSET_TABLE_+0x250>
  401da6:	68 47 00 00 00       	pushq  $0x47
  401dab:	e9 70 fb ff ff       	jmpq   401920 <_init+0x28>

0000000000401db0 <asin@plt>:
  401db0:	ff 25 a2 74 22 00    	jmpq   *0x2274a2(%rip)        # 629258 <_GLOBAL_OFFSET_TABLE_+0x258>
  401db6:	68 48 00 00 00       	pushq  $0x48
  401dbb:	e9 60 fb ff ff       	jmpq   401920 <_init+0x28>

0000000000401dc0 <getppid@plt>:
  401dc0:	ff 25 9a 74 22 00    	jmpq   *0x22749a(%rip)        # 629260 <_GLOBAL_OFFSET_TABLE_+0x260>
  401dc6:	68 49 00 00 00       	pushq  $0x49
  401dcb:	e9 50 fb ff ff       	jmpq   401920 <_init+0x28>

0000000000401dd0 <exit@plt>:
  401dd0:	ff 25 92 74 22 00    	jmpq   *0x227492(%rip)        # 629268 <_GLOBAL_OFFSET_TABLE_+0x268>
  401dd6:	68 4a 00 00 00       	pushq  $0x4a
  401ddb:	e9 40 fb ff ff       	jmpq   401920 <_init+0x28>

0000000000401de0 <fwrite@plt>:
  401de0:	ff 25 8a 74 22 00    	jmpq   *0x22748a(%rip)        # 629270 <_GLOBAL_OFFSET_TABLE_+0x270>
  401de6:	68 4b 00 00 00       	pushq  $0x4b
  401deb:	e9 30 fb ff ff       	jmpq   401920 <_init+0x28>

0000000000401df0 <lseek64@plt>:
  401df0:	ff 25 82 74 22 00    	jmpq   *0x227482(%rip)        # 629278 <_GLOBAL_OFFSET_TABLE_+0x278>
  401df6:	68 4c 00 00 00       	pushq  $0x4c
  401dfb:	e9 20 fb ff ff       	jmpq   401920 <_init+0x28>

0000000000401e00 <__fprintf_chk@plt>:
  401e00:	ff 25 7a 74 22 00    	jmpq   *0x22747a(%rip)        # 629280 <_GLOBAL_OFFSET_TABLE_+0x280>
  401e06:	68 4d 00 00 00       	pushq  $0x4d
  401e0b:	e9 10 fb ff ff       	jmpq   401920 <_init+0x28>

0000000000401e10 <hypot@plt>:
  401e10:	ff 25 72 74 22 00    	jmpq   *0x227472(%rip)        # 629288 <_GLOBAL_OFFSET_TABLE_+0x288>
  401e16:	68 4e 00 00 00       	pushq  $0x4e
  401e1b:	e9 00 fb ff ff       	jmpq   401920 <_init+0x28>

0000000000401e20 <sqrt@plt>:
  401e20:	ff 25 6a 74 22 00    	jmpq   *0x22746a(%rip)        # 629290 <_GLOBAL_OFFSET_TABLE_+0x290>
  401e26:	68 4f 00 00 00       	pushq  $0x4f
  401e2b:	e9 f0 fa ff ff       	jmpq   401920 <_init+0x28>

0000000000401e30 <sigaltstack@plt>:
  401e30:	ff 25 62 74 22 00    	jmpq   *0x227462(%rip)        # 629298 <_GLOBAL_OFFSET_TABLE_+0x298>
  401e36:	68 50 00 00 00       	pushq  $0x50
  401e3b:	e9 e0 fa ff ff       	jmpq   401920 <_init+0x28>

0000000000401e40 <strerror@plt>:
  401e40:	ff 25 5a 74 22 00    	jmpq   *0x22745a(%rip)        # 6292a0 <_GLOBAL_OFFSET_TABLE_+0x2a0>
  401e46:	68 51 00 00 00       	pushq  $0x51
  401e4b:	e9 d0 fa ff ff       	jmpq   401920 <_init+0x28>

0000000000401e50 <dlsym@plt>:
  401e50:	ff 25 52 74 22 00    	jmpq   *0x227452(%rip)        # 6292a8 <_GLOBAL_OFFSET_TABLE_+0x2a8>
  401e56:	68 52 00 00 00       	pushq  $0x52
  401e5b:	e9 c0 fa ff ff       	jmpq   401920 <_init+0x28>

0000000000401e60 <ceil@plt>:
  401e60:	ff 25 4a 74 22 00    	jmpq   *0x22744a(%rip)        # 6292b0 <_GLOBAL_OFFSET_TABLE_+0x2b0>
  401e66:	68 53 00 00 00       	pushq  $0x53
  401e6b:	e9 b0 fa ff ff       	jmpq   401920 <_init+0x28>

0000000000401e70 <__sigsetjmp@plt>:
  401e70:	ff 25 42 74 22 00    	jmpq   *0x227442(%rip)        # 6292b8 <_GLOBAL_OFFSET_TABLE_+0x2b8>
  401e76:	68 54 00 00 00       	pushq  $0x54
  401e7b:	e9 a0 fa ff ff       	jmpq   401920 <_init+0x28>

0000000000401e80 <sigaddset@plt>:
  401e80:	ff 25 3a 74 22 00    	jmpq   *0x22743a(%rip)        # 6292c0 <_GLOBAL_OFFSET_TABLE_+0x2c0>
  401e86:	68 55 00 00 00       	pushq  $0x55
  401e8b:	e9 90 fa ff ff       	jmpq   401920 <_init+0x28>

0000000000401e90 <dlerror@plt>:
  401e90:	ff 25 32 74 22 00    	jmpq   *0x227432(%rip)        # 6292c8 <_GLOBAL_OFFSET_TABLE_+0x2c8>
  401e96:	68 56 00 00 00       	pushq  $0x56
  401e9b:	e9 80 fa ff ff       	jmpq   401920 <_init+0x28>

セクション .plt.got の逆アセンブル:

0000000000401ea0 <.plt.got>:
  401ea0:	ff 25 52 71 22 00    	jmpq   *0x227152(%rip)        # 628ff8 <_DYNAMIC+0x1f0>
  401ea6:	66 90                	xchg   %ax,%ax

セクション .text の逆アセンブル:

0000000000401eb0 <compare_stack_overflow>:
  401eb0:	50                   	push   %rax
  401eb1:	31 d2                	xor    %edx,%edx
  401eb3:	bf 04 00 00 00       	mov    $0x4,%edi
  401eb8:	be 38 de 41 00       	mov    $0x41de38,%esi
  401ebd:	e8 ee 9d 01 00       	callq  41bcb0 <caml_gc_message>
  401ec2:	48 8b 3d b7 a7 22 00 	mov    0x22a7b7(%rip),%rdi        # 62c680 <compare_stack>
  401ec9:	48 81 ff 60 cf 62 00 	cmp    $0x62cf60,%rdi
  401ed0:	74 1b                	je     401eed <compare_stack_overflow+0x3d>
  401ed2:	e8 89 fa ff ff       	callq  401960 <free@plt>
  401ed7:	48 c7 05 9e a7 22 00 	movq   $0x62cf60,0x22a79e(%rip)        # 62c680 <compare_stack>
  401ede:	60 cf 62 00 
  401ee2:	48 c7 05 8b a7 22 00 	movq   $0x62e760,0x22a78b(%rip)        # 62c678 <compare_stack_limit>
  401ee9:	60 e7 62 00 
  401eed:	e8 0e 88 01 00       	callq  41a700 <caml_raise_out_of_memory>

0000000000401ef2 <extern_out_of_memory>:
  401ef2:	50                   	push   %rax
  401ef3:	e8 38 c8 00 00       	callq  40e730 <extern_replay_trail>
  401ef8:	48 83 3d c8 c8 22 00 	cmpq   $0x0,0x22c8c8(%rip)        # 62e7c8 <extern_userprovided_output>
  401eff:	00 
  401f00:	75 05                	jne    401f07 <extern_out_of_memory+0x15>
  401f02:	e8 19 c9 00 00       	callq  40e820 <free_extern_output.part.0>
  401f07:	e8 f4 87 01 00       	callq  41a700 <caml_raise_out_of_memory>

0000000000401f0c <extern_stack_overflow>:
  401f0c:	50                   	push   %rax
  401f0d:	31 d2                	xor    %edx,%edx
  401f0f:	be 40 e2 41 00       	mov    $0x41e240,%esi
  401f14:	bf 04 00 00 00       	mov    $0x4,%edi
  401f19:	e8 92 9d 01 00       	callq  41bcb0 <caml_gc_message>
  401f1e:	e8 0d c8 00 00       	callq  40e730 <extern_replay_trail>
  401f23:	48 83 3d 9d c8 22 00 	cmpq   $0x0,0x22c89d(%rip)        # 62e7c8 <extern_userprovided_output>
  401f2a:	00 
  401f2b:	75 05                	jne    401f32 <extern_stack_overflow+0x26>
  401f2d:	e8 ee c8 00 00       	callq  40e820 <free_extern_output.part.0>
  401f32:	e8 c9 87 01 00       	callq  41a700 <caml_raise_out_of_memory>

0000000000401f37 <intern_bad_code_pointer>:
  401f37:	48 81 ec 20 01 00 00 	sub    $0x120,%rsp
  401f3e:	41 b8 70 e5 41 00    	mov    $0x41e570,%r8d
  401f44:	b9 00 01 00 00       	mov    $0x100,%ecx
  401f49:	64 48 8b 04 25 28 00 	mov    %fs:0x28,%rax
  401f50:	00 00 
  401f52:	48 89 84 24 10 01 00 	mov    %rax,0x110(%rsp)
  401f59:	00 
  401f5a:	31 c0                	xor    %eax,%eax
  401f5c:	0f b6 47 0f          	movzbl 0xf(%rdi),%eax
  401f60:	ba 01 00 00 00       	mov    $0x1,%edx
  401f65:	be 00 01 00 00       	mov    $0x100,%esi
  401f6a:	50                   	push   %rax
  401f6b:	0f b6 47 0e          	movzbl 0xe(%rdi),%eax
  401f6f:	50                   	push   %rax
  401f70:	0f b6 47 0d          	movzbl 0xd(%rdi),%eax
  401f74:	50                   	push   %rax
  401f75:	0f b6 47 0c          	movzbl 0xc(%rdi),%eax
  401f79:	50                   	push   %rax
  401f7a:	0f b6 47 0b          	movzbl 0xb(%rdi),%eax
  401f7e:	50                   	push   %rax
  401f7f:	0f b6 47 0a          	movzbl 0xa(%rdi),%eax
  401f83:	50                   	push   %rax
  401f84:	0f b6 47 09          	movzbl 0x9(%rdi),%eax
  401f88:	50                   	push   %rax
  401f89:	0f b6 47 08          	movzbl 0x8(%rdi),%eax
  401f8d:	50                   	push   %rax
  401f8e:	0f b6 47 07          	movzbl 0x7(%rdi),%eax
  401f92:	50                   	push   %rax
  401f93:	0f b6 47 06          	movzbl 0x6(%rdi),%eax
  401f97:	50                   	push   %rax
  401f98:	0f b6 47 05          	movzbl 0x5(%rdi),%eax
  401f9c:	50                   	push   %rax
  401f9d:	0f b6 47 04          	movzbl 0x4(%rdi),%eax
  401fa1:	50                   	push   %rax
  401fa2:	0f b6 47 03          	movzbl 0x3(%rdi),%eax
  401fa6:	50                   	push   %rax
  401fa7:	0f b6 47 02          	movzbl 0x2(%rdi),%eax
  401fab:	50                   	push   %rax
  401fac:	0f b6 47 01          	movzbl 0x1(%rdi),%eax
  401fb0:	50                   	push   %rax
  401fb1:	44 0f b6 0f          	movzbl (%rdi),%r9d
  401fb5:	31 c0                	xor    %eax,%eax
  401fb7:	48 8d bc 24 80 00 00 	lea    0x80(%rsp),%rdi
  401fbe:	00 
  401fbf:	e8 8c f9 ff ff       	callq  401950 <__snprintf_chk@plt>
  401fc4:	48 83 ec 80          	sub    $0xffffffffffffff80,%rsp
  401fc8:	48 89 e7             	mov    %rsp,%rdi
  401fcb:	e8 f0 86 01 00       	callq  41a6c0 <caml_failwith>

0000000000401fd0 <intern_stack_overflow>:
  401fd0:	50                   	push   %rax
  401fd1:	31 d2                	xor    %edx,%edx
  401fd3:	bf 04 00 00 00       	mov    $0x4,%edi
  401fd8:	be d8 e5 41 00       	mov    $0x41e5d8,%esi
  401fdd:	e8 ce 9c 01 00       	callq  41bcb0 <caml_gc_message>
  401fe2:	48 8b 3d d7 a7 22 00 	mov    0x22a7d7(%rip),%rdi        # 62c7c0 <intern_stack>
  401fe9:	48 81 ff 40 38 63 00 	cmp    $0x633840,%rdi
  401ff0:	74 1b                	je     40200d <intern_stack_overflow+0x3d>
  401ff2:	e8 69 f9 ff ff       	callq  401960 <free@plt>
  401ff7:	48 c7 05 be a7 22 00 	movq   $0x633840,0x22a7be(%rip)        # 62c7c0 <intern_stack>
  401ffe:	40 38 63 00 
  402002:	48 c7 05 ab a7 22 00 	movq   $0x635040,0x22a7ab(%rip)        # 62c7b8 <intern_stack_limit>
  402009:	40 50 63 00 
  40200d:	e8 ee 86 01 00       	callq  41a700 <caml_raise_out_of_memory>
  402012:	66 2e 0f 1f 84 00 00 	nopw   %cs:0x0(%rax,%rax,1)
  402019:	00 00 00 
  40201c:	0f 1f 40 00          	nopl   0x0(%rax)

0000000000402020 <main>:
  402020:	48 83 ec 08          	sub    $0x8,%rsp
  402024:	48 89 f7             	mov    %rsi,%rdi
  402027:	e8 c4 81 01 00       	callq  41a1f0 <caml_main>
  40202c:	bf 01 00 00 00       	mov    $0x1,%edi
  402031:	e8 ba fb 00 00       	callq  411bf0 <caml_sys_exit>
  402036:	31 c0                	xor    %eax,%eax
  402038:	48 83 c4 08          	add    $0x8,%rsp
  40203c:	c3                   	retq   
  40203d:	0f 1f 00             	nopl   (%rax)

0000000000402040 <_start>:
  402040:	31 ed                	xor    %ebp,%ebp
  402042:	49 89 d1             	mov    %rdx,%r9
  402045:	5e                   	pop    %rsi
  402046:	48 89 e2             	mov    %rsp,%rdx
  402049:	48 83 e4 f0          	and    $0xfffffffffffffff0,%rsp
  40204d:	50                   	push   %rax
  40204e:	54                   	push   %rsp
  40204f:	49 c7 c0 30 d8 41 00 	mov    $0x41d830,%r8
  402056:	48 c7 c1 c0 d7 41 00 	mov    $0x41d7c0,%rcx
  40205d:	48 c7 c7 20 20 40 00 	mov    $0x402020,%rdi
  402064:	e8 17 fb ff ff       	callq  401b80 <__libc_start_main@plt>
  402069:	f4                   	hlt    
  40206a:	66 0f 1f 44 00 00    	nopw   0x0(%rax,%rax,1)

0000000000402070 <deregister_tm_clones>:
  402070:	b8 ef c8 62 00       	mov    $0x62c8ef,%eax
  402075:	55                   	push   %rbp
  402076:	48 2d e8 c8 62 00    	sub    $0x62c8e8,%rax
  40207c:	48 83 f8 0e          	cmp    $0xe,%rax
  402080:	48 89 e5             	mov    %rsp,%rbp
  402083:	76 1b                	jbe    4020a0 <deregister_tm_clones+0x30>
  402085:	b8 00 00 00 00       	mov    $0x0,%eax
  40208a:	48 85 c0             	test   %rax,%rax
  40208d:	74 11                	je     4020a0 <deregister_tm_clones+0x30>
  40208f:	5d                   	pop    %rbp
  402090:	bf e8 c8 62 00       	mov    $0x62c8e8,%edi
  402095:	ff e0                	jmpq   *%rax
  402097:	66 0f 1f 84 00 00 00 	nopw   0x0(%rax,%rax,1)
  40209e:	00 00 
  4020a0:	5d                   	pop    %rbp
  4020a1:	c3                   	retq   
  4020a2:	0f 1f 40 00          	nopl   0x0(%rax)
  4020a6:	66 2e 0f 1f 84 00 00 	nopw   %cs:0x0(%rax,%rax,1)
  4020ad:	00 00 00 

00000000004020b0 <register_tm_clones>:
  4020b0:	be e8 c8 62 00       	mov    $0x62c8e8,%esi
  4020b5:	55                   	push   %rbp
  4020b6:	48 81 ee e8 c8 62 00 	sub    $0x62c8e8,%rsi
  4020bd:	48 c1 fe 03          	sar    $0x3,%rsi
  4020c1:	48 89 e5             	mov    %rsp,%rbp
  4020c4:	48 89 f0             	mov    %rsi,%rax
  4020c7:	48 c1 e8 3f          	shr    $0x3f,%rax
  4020cb:	48 01 c6             	add    %rax,%rsi
  4020ce:	48 d1 fe             	sar    %rsi
  4020d1:	74 15                	je     4020e8 <register_tm_clones+0x38>
  4020d3:	b8 00 00 00 00       	mov    $0x0,%eax
  4020d8:	48 85 c0             	test   %rax,%rax
  4020db:	74 0b                	je     4020e8 <register_tm_clones+0x38>
  4020dd:	5d                   	pop    %rbp
  4020de:	bf e8 c8 62 00       	mov    $0x62c8e8,%edi
  4020e3:	ff e0                	jmpq   *%rax
  4020e5:	0f 1f 00             	nopl   (%rax)
  4020e8:	5d                   	pop    %rbp
  4020e9:	c3                   	retq   
  4020ea:	66 0f 1f 44 00 00    	nopw   0x0(%rax,%rax,1)

00000000004020f0 <__do_global_dtors_aux>:
  4020f0:	80 3d 11 a8 22 00 00 	cmpb   $0x0,0x22a811(%rip)        # 62c908 <completed.7585>
  4020f7:	75 11                	jne    40210a <__do_global_dtors_aux+0x1a>
  4020f9:	55                   	push   %rbp
  4020fa:	48 89 e5             	mov    %rsp,%rbp
  4020fd:	e8 6e ff ff ff       	callq  402070 <deregister_tm_clones>
  402102:	5d                   	pop    %rbp
  402103:	c6 05 fe a7 22 00 01 	movb   $0x1,0x22a7fe(%rip)        # 62c908 <completed.7585>
  40210a:	f3 c3                	repz retq 
  40210c:	0f 1f 40 00          	nopl   0x0(%rax)

0000000000402110 <frame_dummy>:
  402110:	bf 00 8e 62 00       	mov    $0x628e00,%edi
  402115:	48 83 3f 00          	cmpq   $0x0,(%rdi)
  402119:	75 05                	jne    402120 <frame_dummy+0x10>
  40211b:	eb 93                	jmp    4020b0 <register_tm_clones>
  40211d:	0f 1f 00             	nopl   (%rax)
  402120:	b8 00 00 00 00       	mov    $0x0,%eax
  402125:	48 85 c0             	test   %rax,%rax
  402128:	74 f1                	je     40211b <frame_dummy+0xb>
  40212a:	55                   	push   %rbp
  40212b:	48 89 e5             	mov    %rsp,%rbp
  40212e:	ff d0                	callq  *%rax
  402130:	5d                   	pop    %rbp
  402131:	e9 7a ff ff ff       	jmpq   4020b0 <register_tm_clones>
  402136:	66 2e 0f 1f 84 00 00 	nopw   %cs:0x0(%rax,%rax,1)
  40213d:	00 00 00 

0000000000402140 <caml_program>:
  402140:	48 83 ec 08          	sub    $0x8,%rsp
  402144:	e8 f7 13 00 00       	callq  403540 <camlCamlinternalFormatBasics__entry>
  402149:	48 8d 05 d0 a7 22 00 	lea    0x22a7d0(%rip),%rax        # 62c920 <caml_globals_inited>
  402150:	48 83 00 01          	addq   $0x1,(%rax)
  402154:	e8 e7 2b 00 00       	callq  404d40 <camlPervasives__entry>
  402159:	48 8d 05 c0 a7 22 00 	lea    0x22a7c0(%rip),%rax        # 62c920 <caml_globals_inited>
  402160:	48 83 00 01          	addq   $0x1,(%rax)
  402164:	e8 27 04 00 00       	callq  402590 <camlFib__entry>
  402169:	48 8d 05 b0 a7 22 00 	lea    0x22a7b0(%rip),%rax        # 62c920 <caml_globals_inited>
  402170:	48 83 00 01          	addq   $0x1,(%rax)
  402174:	e8 97 03 00 00       	callq  402510 <camlStd_exit__entry>
  402179:	48 8d 05 a0 a7 22 00 	lea    0x22a7a0(%rip),%rax        # 62c920 <caml_globals_inited>
  402180:	48 83 00 01          	addq   $0x1,(%rax)
  402184:	48 c7 c0 01 00 00 00 	mov    $0x1,%rax
  40218b:	48 83 c4 08          	add    $0x8,%rsp
  40218f:	c3                   	retq   

0000000000402190 <caml_curry4>:
  402190:	48 83 ec 08          	sub    $0x8,%rsp
  402194:	48 89 c7             	mov    %rax,%rdi
  402197:	49 83 ef 30          	sub    $0x30,%r15
  40219b:	48 8d 05 fe ac 22 00 	lea    0x22acfe(%rip),%rax        # 62cea0 <caml_young_limit>
  4021a2:	4c 3b 38             	cmp    (%rax),%r15
  4021a5:	72 36                	jb     4021dd <caml_curry4+0x4d>
  4021a7:	49 8d 47 08          	lea    0x8(%r15),%rax
  4021ab:	48 c7 40 f8 f7 14 00 	movq   $0x14f7,-0x8(%rax)
  4021b2:	00 
  4021b3:	48 8d 35 66 00 00 00 	lea    0x66(%rip),%rsi        # 402220 <caml_curry4_1>
  4021ba:	48 89 30             	mov    %rsi,(%rax)
  4021bd:	48 c7 40 08 07 00 00 	movq   $0x7,0x8(%rax)
  4021c4:	00 
  4021c5:	48 8d 35 24 00 00 00 	lea    0x24(%rip),%rsi        # 4021f0 <caml_curry4_1_app>
  4021cc:	48 89 70 10          	mov    %rsi,0x10(%rax)
  4021d0:	48 89 78 18          	mov    %rdi,0x18(%rax)
  4021d4:	48 89 58 20          	mov    %rbx,0x20(%rax)
  4021d8:	48 83 c4 08          	add    $0x8,%rsp
  4021dc:	c3                   	retq   
  4021dd:	e8 3e 79 01 00       	callq  419b20 <caml_call_gc>
  4021e2:	eb b3                	jmp    402197 <caml_curry4+0x7>
  4021e4:	66 90                	xchg   %ax,%ax
  4021e6:	66 2e 0f 1f 84 00 00 	nopw   %cs:0x0(%rax,%rax,1)
  4021ed:	00 00 00 

00000000004021f0 <caml_curry4_1_app>:
  4021f0:	48 89 c1             	mov    %rax,%rcx
  4021f3:	49 89 d8             	mov    %rbx,%r8
  4021f6:	49 89 f9             	mov    %rdi,%r9
  4021f9:	48 8b 56 20          	mov    0x20(%rsi),%rdx
  4021fd:	48 8b 46 18          	mov    0x18(%rsi),%rax
  402201:	4c 8b 62 10          	mov    0x10(%rdx),%r12
  402205:	48 89 cb             	mov    %rcx,%rbx
  402208:	4c 89 c7             	mov    %r8,%rdi
  40220b:	4c 89 ce             	mov    %r9,%rsi
  40220e:	41 ff e4             	jmpq   *%r12
  402211:	0f 1f 44 00 00       	nopl   0x0(%rax,%rax,1)
  402216:	66 2e 0f 1f 84 00 00 	nopw   %cs:0x0(%rax,%rax,1)
  40221d:	00 00 00 

0000000000402220 <caml_curry4_1>:
  402220:	48 83 ec 08          	sub    $0x8,%rsp
  402224:	48 89 c7             	mov    %rax,%rdi
  402227:	49 83 ef 30          	sub    $0x30,%r15
  40222b:	48 8d 05 6e ac 22 00 	lea    0x22ac6e(%rip),%rax        # 62cea0 <caml_young_limit>
  402232:	4c 3b 38             	cmp    (%rax),%r15
  402235:	72 36                	jb     40226d <caml_curry4_1+0x4d>
  402237:	49 8d 47 08          	lea    0x8(%r15),%rax
  40223b:	48 c7 40 f8 f7 14 00 	movq   $0x14f7,-0x8(%rax)
  402242:	00 
  402243:	48 8d 35 56 00 00 00 	lea    0x56(%rip),%rsi        # 4022a0 <caml_curry4_2>
  40224a:	48 89 30             	mov    %rsi,(%rax)
  40224d:	48 c7 40 08 05 00 00 	movq   $0x5,0x8(%rax)
  402254:	00 
  402255:	48 8d 35 24 00 00 00 	lea    0x24(%rip),%rsi        # 402280 <caml_curry4_2_app>
  40225c:	48 89 70 10          	mov    %rsi,0x10(%rax)
  402260:	48 89 78 18          	mov    %rdi,0x18(%rax)
  402264:	48 89 58 20          	mov    %rbx,0x20(%rax)
  402268:	48 83 c4 08          	add    $0x8,%rsp
  40226c:	c3                   	retq   
  40226d:	e8 ae 78 01 00       	callq  419b20 <caml_call_gc>
  402272:	eb b3                	jmp    402227 <caml_curry4_1+0x7>
  402274:	66 90                	xchg   %ax,%ax
  402276:	66 2e 0f 1f 84 00 00 	nopw   %cs:0x0(%rax,%rax,1)
  40227d:	00 00 00 

0000000000402280 <caml_curry4_2_app>:
  402280:	48 89 c1             	mov    %rax,%rcx
  402283:	48 89 de             	mov    %rbx,%rsi
  402286:	48 8b 47 20          	mov    0x20(%rdi),%rax
  40228a:	48 8b 50 20          	mov    0x20(%rax),%rdx
  40228e:	48 8b 5f 18          	mov    0x18(%rdi),%rbx
  402292:	48 8b 40 18          	mov    0x18(%rax),%rax
  402296:	4c 8b 42 10          	mov    0x10(%rdx),%r8
  40229a:	48 89 cf             	mov    %rcx,%rdi
  40229d:	41 ff e0             	jmpq   *%r8

00000000004022a0 <caml_curry4_2>:
  4022a0:	48 83 ec 08          	sub    $0x8,%rsp
  4022a4:	48 89 c7             	mov    %rax,%rdi
  4022a7:	49 83 ef 28          	sub    $0x28,%r15
  4022ab:	48 8d 05 ee ab 22 00 	lea    0x22abee(%rip),%rax        # 62cea0 <caml_young_limit>
  4022b2:	4c 3b 38             	cmp    (%rax),%r15
  4022b5:	72 2b                	jb     4022e2 <caml_curry4_2+0x42>
  4022b7:	49 8d 47 08          	lea    0x8(%r15),%rax
  4022bb:	48 c7 40 f8 f7 10 00 	movq   $0x10f7,-0x8(%rax)
  4022c2:	00 
  4022c3:	48 8d 35 26 00 00 00 	lea    0x26(%rip),%rsi        # 4022f0 <caml_curry4_3>
  4022ca:	48 89 30             	mov    %rsi,(%rax)
  4022cd:	48 c7 40 08 03 00 00 	movq   $0x3,0x8(%rax)
  4022d4:	00 
  4022d5:	48 89 78 10          	mov    %rdi,0x10(%rax)
  4022d9:	48 89 58 18          	mov    %rbx,0x18(%rax)
  4022dd:	48 83 c4 08          	add    $0x8,%rsp
  4022e1:	c3                   	retq   
  4022e2:	e8 39 78 01 00       	callq  419b20 <caml_call_gc>
  4022e7:	eb be                	jmp    4022a7 <caml_curry4_2+0x7>
  4022e9:	0f 1f 80 00 00 00 00 	nopl   0x0(%rax)

00000000004022f0 <caml_curry4_3>:
  4022f0:	48 89 c6             	mov    %rax,%rsi
  4022f3:	48 8b 43 18          	mov    0x18(%rbx),%rax
  4022f7:	48 8b 48 20          	mov    0x20(%rax),%rcx
  4022fb:	48 8b 51 20          	mov    0x20(%rcx),%rdx
  4022ff:	48 8b 7b 10          	mov    0x10(%rbx),%rdi
  402303:	48 8b 58 18          	mov    0x18(%rax),%rbx
  402307:	48 8b 41 18          	mov    0x18(%rcx),%rax
  40230b:	48 8b 4a 10          	mov    0x10(%rdx),%rcx
  40230f:	ff e1                	jmpq   *%rcx
  402311:	0f 1f 44 00 00       	nopl   0x0(%rax,%rax,1)
  402316:	66 2e 0f 1f 84 00 00 	nopw   %cs:0x0(%rax,%rax,1)
  40231d:	00 00 00 

0000000000402320 <caml_curry3>:
  402320:	48 83 ec 08          	sub    $0x8,%rsp
  402324:	48 89 c7             	mov    %rax,%rdi
  402327:	49 83 ef 30          	sub    $0x30,%r15
  40232b:	48 8d 05 6e ab 22 00 	lea    0x22ab6e(%rip),%rax        # 62cea0 <caml_young_limit>
  402332:	4c 3b 38             	cmp    (%rax),%r15
  402335:	72 36                	jb     40236d <caml_curry3+0x4d>
  402337:	49 8d 47 08          	lea    0x8(%r15),%rax
  40233b:	48 c7 40 f8 f7 14 00 	movq   $0x14f7,-0x8(%rax)
  402342:	00 
  402343:	48 8d 35 56 00 00 00 	lea    0x56(%rip),%rsi        # 4023a0 <caml_curry3_1>
  40234a:	48 89 30             	mov    %rsi,(%rax)
  40234d:	48 c7 40 08 05 00 00 	movq   $0x5,0x8(%rax)
  402354:	00 
  402355:	48 8d 35 24 00 00 00 	lea    0x24(%rip),%rsi        # 402380 <caml_curry3_1_app>
  40235c:	48 89 70 10          	mov    %rsi,0x10(%rax)
  402360:	48 89 78 18          	mov    %rdi,0x18(%rax)
  402364:	48 89 58 20          	mov    %rbx,0x20(%rax)
  402368:	48 83 c4 08          	add    $0x8,%rsp
  40236c:	c3                   	retq   
  40236d:	e8 ae 77 01 00       	callq  419b20 <caml_call_gc>
  402372:	eb b3                	jmp    402327 <caml_curry3+0x7>
  402374:	66 90                	xchg   %ax,%ax
  402376:	66 2e 0f 1f 84 00 00 	nopw   %cs:0x0(%rax,%rax,1)
  40237d:	00 00 00 

0000000000402380 <caml_curry3_1_app>:
  402380:	48 89 c2             	mov    %rax,%rdx
  402383:	48 89 d9             	mov    %rbx,%rcx
  402386:	48 8b 77 20          	mov    0x20(%rdi),%rsi
  40238a:	48 8b 47 18          	mov    0x18(%rdi),%rax
  40238e:	4c 8b 46 10          	mov    0x10(%rsi),%r8
  402392:	48 89 d3             	mov    %rdx,%rbx
  402395:	48 89 cf             	mov    %rcx,%rdi
  402398:	41 ff e0             	jmpq   *%r8
  40239b:	0f 1f 44 00 00       	nopl   0x0(%rax,%rax,1)

00000000004023a0 <caml_curry3_1>:
  4023a0:	48 83 ec 08          	sub    $0x8,%rsp
  4023a4:	48 89 c7             	mov    %rax,%rdi
  4023a7:	49 83 ef 28          	sub    $0x28,%r15
  4023ab:	48 8d 05 ee aa 22 00 	lea    0x22aaee(%rip),%rax        # 62cea0 <caml_young_limit>
  4023b2:	4c 3b 38             	cmp    (%rax),%r15
  4023b5:	72 2b                	jb     4023e2 <caml_curry3_1+0x42>
  4023b7:	49 8d 47 08          	lea    0x8(%r15),%rax
  4023bb:	48 c7 40 f8 f7 10 00 	movq   $0x10f7,-0x8(%rax)
  4023c2:	00 
  4023c3:	48 8d 35 26 00 00 00 	lea    0x26(%rip),%rsi        # 4023f0 <caml_curry3_2>
  4023ca:	48 89 30             	mov    %rsi,(%rax)
  4023cd:	48 c7 40 08 03 00 00 	movq   $0x3,0x8(%rax)
  4023d4:	00 
  4023d5:	48 89 78 10          	mov    %rdi,0x10(%rax)
  4023d9:	48 89 58 18          	mov    %rbx,0x18(%rax)
  4023dd:	48 83 c4 08          	add    $0x8,%rsp
  4023e1:	c3                   	retq   
  4023e2:	e8 39 77 01 00       	callq  419b20 <caml_call_gc>
  4023e7:	eb be                	jmp    4023a7 <caml_curry3_1+0x7>
  4023e9:	0f 1f 80 00 00 00 00 	nopl   0x0(%rax)

00000000004023f0 <caml_curry3_2>:
  4023f0:	48 89 c7             	mov    %rax,%rdi
  4023f3:	48 8b 43 18          	mov    0x18(%rbx),%rax
  4023f7:	48 8b 70 20          	mov    0x20(%rax),%rsi
  4023fb:	48 8b 5b 10          	mov    0x10(%rbx),%rbx
  4023ff:	48 8b 40 18          	mov    0x18(%rax),%rax
  402403:	48 8b 56 10          	mov    0x10(%rsi),%rdx
  402407:	ff e2                	jmpq   *%rdx
  402409:	0f 1f 80 00 00 00 00 	nopl   0x0(%rax)

0000000000402410 <caml_curry2>:
  402410:	48 83 ec 08          	sub    $0x8,%rsp
  402414:	48 89 c7             	mov    %rax,%rdi
  402417:	49 83 ef 28          	sub    $0x28,%r15
  40241b:	48 8d 05 7e aa 22 00 	lea    0x22aa7e(%rip),%rax        # 62cea0 <caml_young_limit>
  402422:	4c 3b 38             	cmp    (%rax),%r15
  402425:	72 2b                	jb     402452 <caml_curry2+0x42>
  402427:	49 8d 47 08          	lea    0x8(%r15),%rax
  40242b:	48 c7 40 f8 f7 10 00 	movq   $0x10f7,-0x8(%rax)
  402432:	00 
  402433:	48 8d 35 26 00 00 00 	lea    0x26(%rip),%rsi        # 402460 <caml_curry2_1>
  40243a:	48 89 30             	mov    %rsi,(%rax)
  40243d:	48 c7 40 08 03 00 00 	movq   $0x3,0x8(%rax)
  402444:	00 
  402445:	48 89 78 10          	mov    %rdi,0x10(%rax)
  402449:	48 89 58 18          	mov    %rbx,0x18(%rax)
  40244d:	48 83 c4 08          	add    $0x8,%rsp
  402451:	c3                   	retq   
  402452:	e8 c9 76 01 00       	callq  419b20 <caml_call_gc>
  402457:	eb be                	jmp    402417 <caml_curry2+0x7>
  402459:	0f 1f 80 00 00 00 00 	nopl   0x0(%rax)

0000000000402460 <caml_curry2_1>:
  402460:	48 89 c6             	mov    %rax,%rsi
  402463:	48 8b 7b 18          	mov    0x18(%rbx),%rdi
  402467:	48 8b 43 10          	mov    0x10(%rbx),%rax
  40246b:	48 8b 57 10          	mov    0x10(%rdi),%rdx
  40246f:	48 89 f3             	mov    %rsi,%rbx
  402472:	ff e2                	jmpq   *%rdx
  402474:	66 90                	xchg   %ax,%ax
  402476:	66 2e 0f 1f 84 00 00 	nopw   %cs:0x0(%rax,%rax,1)
  40247d:	00 00 00 

0000000000402480 <caml_apply3>:
  402480:	48 83 ec 18          	sub    $0x18,%rsp
  402484:	48 8b 56 08          	mov    0x8(%rsi),%rdx
  402488:	48 83 fa 07          	cmp    $0x7,%rdx
  40248c:	75 0a                	jne    402498 <caml_apply3+0x18>
  40248e:	48 8b 56 10          	mov    0x10(%rsi),%rdx
  402492:	48 83 c4 18          	add    $0x18,%rsp
  402496:	ff e2                	jmpq   *%rdx
  402498:	48 89 7c 24 08       	mov    %rdi,0x8(%rsp)
  40249d:	48 89 1c 24          	mov    %rbx,(%rsp)
  4024a1:	48 8b 3e             	mov    (%rsi),%rdi
  4024a4:	48 89 f3             	mov    %rsi,%rbx
  4024a7:	ff d7                	callq  *%rdi
  4024a9:	48 89 c3             	mov    %rax,%rbx
  4024ac:	48 8b 3b             	mov    (%rbx),%rdi
  4024af:	48 8b 04 24          	mov    (%rsp),%rax
  4024b3:	ff d7                	callq  *%rdi
  4024b5:	48 89 c3             	mov    %rax,%rbx
  4024b8:	48 8b 3b             	mov    (%rbx),%rdi
  4024bb:	48 8b 44 24 08       	mov    0x8(%rsp),%rax
  4024c0:	48 83 c4 18          	add    $0x18,%rsp
  4024c4:	ff e7                	jmpq   *%rdi
  4024c6:	66 2e 0f 1f 84 00 00 	nopw   %cs:0x0(%rax,%rax,1)
  4024cd:	00 00 00 

00000000004024d0 <caml_apply2>:
  4024d0:	48 83 ec 08          	sub    $0x8,%rsp
  4024d4:	48 8b 77 08          	mov    0x8(%rdi),%rsi
  4024d8:	48 83 fe 05          	cmp    $0x5,%rsi
  4024dc:	75 0a                	jne    4024e8 <caml_apply2+0x18>
  4024de:	48 8b 77 10          	mov    0x10(%rdi),%rsi
  4024e2:	48 83 c4 08          	add    $0x8,%rsp
  4024e6:	ff e6                	jmpq   *%rsi
  4024e8:	48 89 1c 24          	mov    %rbx,(%rsp)
  4024ec:	48 8b 37             	mov    (%rdi),%rsi
  4024ef:	48 89 fb             	mov    %rdi,%rbx
  4024f2:	ff d6                	callq  *%rsi
  4024f4:	48 89 c3             	mov    %rax,%rbx
  4024f7:	48 8b 3b             	mov    (%rbx),%rdi
  4024fa:	48 8b 04 24          	mov    (%rsp),%rax
  4024fe:	48 83 c4 08          	add    $0x8,%rsp
  402502:	ff e7                	jmpq   *%rdi

0000000000402504 <caml_startup__code_end>:
  402504:	66 2e 0f 1f 84 00 00 	nopw   %cs:0x0(%rax,%rax,1)
  40250b:	00 00 00 
  40250e:	66 90                	xchg   %ax,%ax

0000000000402510 <camlStd_exit__entry>:
  402510:	48 83 ec 08          	sub    $0x8,%rsp
  402514:	48 8d 05 6d 81 22 00 	lea    0x22816d(%rip),%rax        # 62a688 <camlPervasives>
  40251b:	48 8b 80 b0 02 00 00 	mov    0x2b0(%rax),%rax
  402522:	48 8b 18             	mov    (%rax),%rbx
  402525:	48 c7 c0 01 00 00 00 	mov    $0x1,%rax
  40252c:	48 8b 3b             	mov    (%rbx),%rdi
  40252f:	ff d7                	callq  *%rdi
  402531:	48 c7 c0 01 00 00 00 	mov    $0x1,%rax
  402538:	48 83 c4 08          	add    $0x8,%rsp
  40253c:	c3                   	retq   

000000000040253d <camlStd_exit__code_end>:
  40253d:	0f 1f 00             	nopl   (%rax)

0000000000402540 <camlFib__fib_1199>:
  402540:	48 83 ec 18          	sub    $0x18,%rsp
  402544:	48 83 f8 01          	cmp    $0x1,%rax
  402548:	74 36                	je     402580 <camlFib__fib_1199+0x40>
  40254a:	48 83 f8 03          	cmp    $0x3,%rax
  40254e:	74 30                	je     402580 <camlFib__fib_1199+0x40>
  402550:	48 89 04 24          	mov    %rax,(%rsp)
  402554:	48 83 c0 fc          	add    $0xfffffffffffffffc,%rax
  402558:	e8 e3 ff ff ff       	callq  402540 <camlFib__fib_1199>
  40255d:	48 89 44 24 08       	mov    %rax,0x8(%rsp)
  402562:	48 8b 04 24          	mov    (%rsp),%rax
  402566:	48 83 c0 fe          	add    $0xfffffffffffffffe,%rax
  40256a:	e8 d1 ff ff ff       	callq  402540 <camlFib__fib_1199>
  40256f:	48 8b 5c 24 08       	mov    0x8(%rsp),%rbx
  402574:	48 01 d8             	add    %rbx,%rax
  402577:	48 ff c8             	dec    %rax
  40257a:	48 83 c4 18          	add    $0x18,%rsp
  40257e:	c3                   	retq   
  40257f:	90                   	nop
  402580:	48 c7 c0 03 00 00 00 	mov    $0x3,%rax
  402587:	48 83 c4 18          	add    $0x18,%rsp
  40258b:	c3                   	retq   
  40258c:	0f 1f 40 00          	nopl   0x0(%rax)

0000000000402590 <camlFib__entry>:
  402590:	48 83 ec 08          	sub    $0x8,%rsp
  402594:	48 8d 05 2d 73 22 00 	lea    0x22732d(%rip),%rax        # 6298c8 <camlFib__1>
  40259b:	48 8d 1d 06 73 22 00 	lea    0x227306(%rip),%rbx        # 6298a8 <camlFib>
  4025a2:	48 89 03             	mov    %rax,(%rbx)
  4025a5:	48 c7 c0 15 00 00 00 	mov    $0x15,%rax
  4025ac:	e8 8f ff ff ff       	callq  402540 <camlFib__fib_1199>
  4025b1:	e8 aa 15 00 00       	callq  403b60 <camlPervasives__string_of_int_1146>
  4025b6:	48 89 c3             	mov    %rax,%rbx
  4025b9:	48 8d 05 c8 80 22 00 	lea    0x2280c8(%rip),%rax        # 62a688 <camlPervasives>
  4025c0:	48 8b 80 b8 00 00 00 	mov    0xb8(%rax),%rax
  4025c7:	e8 e4 18 00 00       	callq  403eb0 <camlPervasives__output_string_1203>
  4025cc:	48 c7 c0 01 00 00 00 	mov    $0x1,%rax
  4025d3:	48 83 c4 08          	add    $0x8,%rsp
  4025d7:	c3                   	retq   

00000000004025d8 <camlFib__code_end>:
  4025d8:	0f 1f 84 00 00 00 00 	nopl   0x0(%rax,%rax,1)
  4025df:	00 

00000000004025e0 <camlCamlinternalFormatBasics__erase_rel_1146>:
  4025e0:	48 83 ec 08          	sub    $0x8,%rsp
  4025e4:	48 89 c3             	mov    %rax,%rbx
  4025e7:	f6 c3 01             	test   $0x1,%bl
  4025ea:	74 0c                	je     4025f8 <camlCamlinternalFormatBasics__erase_rel_1146+0x18>
  4025ec:	48 c7 c0 01 00 00 00 	mov    $0x1,%rax
  4025f3:	48 83 c4 08          	add    $0x8,%rsp
  4025f7:	c3                   	retq   
  4025f8:	48 89 1c 24          	mov    %rbx,(%rsp)
  4025fc:	48 0f b6 43 f8       	movzbq -0x8(%rbx),%rax
  402601:	48 8d 15 c8 b2 01 00 	lea    0x1b2c8(%rip),%rdx        # 41d8d0 <caml_absf_mask+0x10>
  402608:	48 63 04 82          	movslq (%rdx,%rax,4),%rax
  40260c:	48 01 c2             	add    %rax,%rdx
  40260f:	ff e2                	jmpq   *%rdx
  402611:	0f 1f 00             	nopl   (%rax)
  402614:	48 8b 03             	mov    (%rbx),%rax
  402617:	e8 c4 ff ff ff       	callq  4025e0 <camlCamlinternalFormatBasics__erase_rel_1146>
  40261c:	48 89 c3             	mov    %rax,%rbx
  40261f:	49 83 ef 10          	sub    $0x10,%r15
  402623:	48 8d 05 76 a8 22 00 	lea    0x22a876(%rip),%rax        # 62cea0 <caml_young_limit>
  40262a:	4c 3b 38             	cmp    (%rax),%r15
  40262d:	0f 82 8a 03 00 00    	jb     4029bd <camlCamlinternalFormatBasics__erase_rel_1146+0x3dd>
  402633:	49 8d 47 08          	lea    0x8(%r15),%rax
  402637:	48 c7 40 f8 00 04 00 	movq   $0x400,-0x8(%rax)
  40263e:	00 
  40263f:	48 89 18             	mov    %rbx,(%rax)
  402642:	48 83 c4 08          	add    $0x8,%rsp
  402646:	c3                   	retq   
  402647:	90                   	nop
  402648:	48 8b 03             	mov    (%rbx),%rax
  40264b:	e8 90 ff ff ff       	callq  4025e0 <camlCamlinternalFormatBasics__erase_rel_1146>
  402650:	48 89 c3             	mov    %rax,%rbx
  402653:	49 83 ef 10          	sub    $0x10,%r15
  402657:	48 8d 05 42 a8 22 00 	lea    0x22a842(%rip),%rax        # 62cea0 <caml_young_limit>
  40265e:	4c 3b 38             	cmp    (%rax),%r15
  402661:	0f 82 4c 03 00 00    	jb     4029b3 <camlCamlinternalFormatBasics__erase_rel_1146+0x3d3>
  402667:	49 8d 47 08          	lea    0x8(%r15),%rax
  40266b:	48 c7 40 f8 01 04 00 	movq   $0x401,-0x8(%rax)
  402672:	00 
  402673:	48 89 18             	mov    %rbx,(%rax)
  402676:	48 83 c4 08          	add    $0x8,%rsp
  40267a:	c3                   	retq   
  40267b:	90                   	nop
  40267c:	48 8b 03             	mov    (%rbx),%rax
  40267f:	e8 5c ff ff ff       	callq  4025e0 <camlCamlinternalFormatBasics__erase_rel_1146>
  402684:	48 89 c3             	mov    %rax,%rbx
  402687:	49 83 ef 10          	sub    $0x10,%r15
  40268b:	48 8d 05 0e a8 22 00 	lea    0x22a80e(%rip),%rax        # 62cea0 <caml_young_limit>
  402692:	4c 3b 38             	cmp    (%rax),%r15
  402695:	0f 82 0e 03 00 00    	jb     4029a9 <camlCamlinternalFormatBasics__erase_rel_1146+0x3c9>
  40269b:	49 8d 47 08          	lea    0x8(%r15),%rax
  40269f:	48 c7 40 f8 02 04 00 	movq   $0x402,-0x8(%rax)
  4026a6:	00 
  4026a7:	48 89 18             	mov    %rbx,(%rax)
  4026aa:	48 83 c4 08          	add    $0x8,%rsp
  4026ae:	c3                   	retq   
  4026af:	90                   	nop
  4026b0:	48 8b 03             	mov    (%rbx),%rax
  4026b3:	e8 28 ff ff ff       	callq  4025e0 <camlCamlinternalFormatBasics__erase_rel_1146>
  4026b8:	48 89 c3             	mov    %rax,%rbx
  4026bb:	49 83 ef 10          	sub    $0x10,%r15
  4026bf:	48 8d 05 da a7 22 00 	lea    0x22a7da(%rip),%rax        # 62cea0 <caml_young_limit>
  4026c6:	4c 3b 38             	cmp    (%rax),%r15
  4026c9:	0f 82 d0 02 00 00    	jb     40299f <camlCamlinternalFormatBasics__erase_rel_1146+0x3bf>
  4026cf:	49 8d 47 08          	lea    0x8(%r15),%rax
  4026d3:	48 c7 40 f8 03 04 00 	movq   $0x403,-0x8(%rax)
  4026da:	00 
  4026db:	48 89 18             	mov    %rbx,(%rax)
  4026de:	48 83 c4 08          	add    $0x8,%rsp
  4026e2:	c3                   	retq   
  4026e3:	90                   	nop
  4026e4:	48 8b 03             	mov    (%rbx),%rax
  4026e7:	e8 f4 fe ff ff       	callq  4025e0 <camlCamlinternalFormatBasics__erase_rel_1146>
  4026ec:	48 89 c3             	mov    %rax,%rbx
  4026ef:	49 83 ef 10          	sub    $0x10,%r15
  4026f3:	48 8d 05 a6 a7 22 00 	lea    0x22a7a6(%rip),%rax        # 62cea0 <caml_young_limit>
  4026fa:	4c 3b 38             	cmp    (%rax),%r15
  4026fd:	0f 82 92 02 00 00    	jb     402995 <camlCamlinternalFormatBasics__erase_rel_1146+0x3b5>
  402703:	49 8d 47 08          	lea    0x8(%r15),%rax
  402707:	48 c7 40 f8 04 04 00 	movq   $0x404,-0x8(%rax)
  40270e:	00 
  40270f:	48 89 18             	mov    %rbx,(%rax)
  402712:	48 83 c4 08          	add    $0x8,%rsp
  402716:	c3                   	retq   
  402717:	90                   	nop
  402718:	48 8b 03             	mov    (%rbx),%rax
  40271b:	e8 c0 fe ff ff       	callq  4025e0 <camlCamlinternalFormatBasics__erase_rel_1146>
  402720:	48 89 c3             	mov    %rax,%rbx
  402723:	49 83 ef 10          	sub    $0x10,%r15
  402727:	48 8d 05 72 a7 22 00 	lea    0x22a772(%rip),%rax        # 62cea0 <caml_young_limit>
  40272e:	4c 3b 38             	cmp    (%rax),%r15
  402731:	0f 82 54 02 00 00    	jb     40298b <camlCamlinternalFormatBasics__erase_rel_1146+0x3ab>
  402737:	49 8d 47 08          	lea    0x8(%r15),%rax
  40273b:	48 c7 40 f8 05 04 00 	movq   $0x405,-0x8(%rax)
  402742:	00 
  402743:	48 89 18             	mov    %rbx,(%rax)
  402746:	48 83 c4 08          	add    $0x8,%rsp
  40274a:	c3                   	retq   
  40274b:	90                   	nop
  40274c:	48 8b 03             	mov    (%rbx),%rax
  40274f:	e8 8c fe ff ff       	callq  4025e0 <camlCamlinternalFormatBasics__erase_rel_1146>
  402754:	48 89 c3             	mov    %rax,%rbx
  402757:	49 83 ef 10          	sub    $0x10,%r15
  40275b:	48 8d 05 3e a7 22 00 	lea    0x22a73e(%rip),%rax        # 62cea0 <caml_young_limit>
  402762:	4c 3b 38             	cmp    (%rax),%r15
  402765:	0f 82 16 02 00 00    	jb     402981 <camlCamlinternalFormatBasics__erase_rel_1146+0x3a1>
  40276b:	49 8d 47 08          	lea    0x8(%r15),%rax
  40276f:	48 c7 40 f8 06 04 00 	movq   $0x406,-0x8(%rax)
  402776:	00 
  402777:	48 89 18             	mov    %rbx,(%rax)
  40277a:	48 83 c4 08          	add    $0x8,%rsp
  40277e:	c3                   	retq   
  40277f:	90                   	nop
  402780:	48 8b 03             	mov    (%rbx),%rax
  402783:	e8 58 fe ff ff       	callq  4025e0 <camlCamlinternalFormatBasics__erase_rel_1146>
  402788:	48 89 c3             	mov    %rax,%rbx
  40278b:	49 83 ef 10          	sub    $0x10,%r15
  40278f:	48 8d 05 0a a7 22 00 	lea    0x22a70a(%rip),%rax        # 62cea0 <caml_young_limit>
  402796:	4c 3b 38             	cmp    (%rax),%r15
  402799:	0f 82 d8 01 00 00    	jb     402977 <camlCamlinternalFormatBasics__erase_rel_1146+0x397>
  40279f:	49 8d 47 08          	lea    0x8(%r15),%rax
  4027a3:	48 c7 40 f8 07 04 00 	movq   $0x407,-0x8(%rax)
  4027aa:	00 
  4027ab:	48 89 18             	mov    %rbx,(%rax)
  4027ae:	48 83 c4 08          	add    $0x8,%rsp
  4027b2:	c3                   	retq   
  4027b3:	90                   	nop
  4027b4:	48 8b 43 08          	mov    0x8(%rbx),%rax
  4027b8:	e8 23 fe ff ff       	callq  4025e0 <camlCamlinternalFormatBasics__erase_rel_1146>
  4027bd:	48 89 c3             	mov    %rax,%rbx
  4027c0:	49 83 ef 18          	sub    $0x18,%r15
  4027c4:	48 8d 05 d5 a6 22 00 	lea    0x22a6d5(%rip),%rax        # 62cea0 <caml_young_limit>
  4027cb:	4c 3b 38             	cmp    (%rax),%r15
  4027ce:	0f 82 99 01 00 00    	jb     40296d <camlCamlinternalFormatBasics__erase_rel_1146+0x38d>
  4027d4:	49 8d 47 08          	lea    0x8(%r15),%rax
  4027d8:	48 c7 40 f8 08 08 00 	movq   $0x808,-0x8(%rax)
  4027df:	00 
  4027e0:	48 8b 3c 24          	mov    (%rsp),%rdi
  4027e4:	48 8b 3f             	mov    (%rdi),%rdi
  4027e7:	48 89 38             	mov    %rdi,(%rax)
  4027ea:	48 89 58 08          	mov    %rbx,0x8(%rax)
  4027ee:	48 83 c4 08          	add    $0x8,%rsp
  4027f2:	c3                   	retq   
  4027f3:	90                   	nop
  4027f4:	48 8b 03             	mov    (%rbx),%rax
  4027f7:	48 89 04 24          	mov    %rax,(%rsp)
  4027fb:	48 8b 43 10          	mov    0x10(%rbx),%rax
  4027ff:	e8 dc fd ff ff       	callq  4025e0 <camlCamlinternalFormatBasics__erase_rel_1146>
  402804:	48 89 c3             	mov    %rax,%rbx
  402807:	49 83 ef 20          	sub    $0x20,%r15
  40280b:	48 8d 05 8e a6 22 00 	lea    0x22a68e(%rip),%rax        # 62cea0 <caml_young_limit>
  402812:	4c 3b 38             	cmp    (%rax),%r15
  402815:	0f 82 48 01 00 00    	jb     402963 <camlCamlinternalFormatBasics__erase_rel_1146+0x383>
  40281b:	49 8d 47 08          	lea    0x8(%r15),%rax
  40281f:	48 c7 40 f8 09 0c 00 	movq   $0xc09,-0x8(%rax)
  402826:	00 
  402827:	48 8b 3c 24          	mov    (%rsp),%rdi
  40282b:	48 89 38             	mov    %rdi,(%rax)
  40282e:	48 89 78 08          	mov    %rdi,0x8(%rax)
  402832:	48 89 58 10          	mov    %rbx,0x10(%rax)
  402836:	48 83 c4 08          	add    $0x8,%rsp
  40283a:	c3                   	retq   
  40283b:	90                   	nop
  40283c:	48 8b 03             	mov    (%rbx),%rax
  40283f:	e8 9c fd ff ff       	callq  4025e0 <camlCamlinternalFormatBasics__erase_rel_1146>
  402844:	48 89 c3             	mov    %rax,%rbx
  402847:	49 83 ef 10          	sub    $0x10,%r15
  40284b:	48 8d 05 4e a6 22 00 	lea    0x22a64e(%rip),%rax        # 62cea0 <caml_young_limit>
  402852:	4c 3b 38             	cmp    (%rax),%r15
  402855:	0f 82 fe 00 00 00    	jb     402959 <camlCamlinternalFormatBasics__erase_rel_1146+0x379>
  40285b:	49 8d 47 08          	lea    0x8(%r15),%rax
  40285f:	48 c7 40 f8 0a 04 00 	movq   $0x40a,-0x8(%rax)
  402866:	00 
  402867:	48 89 18             	mov    %rbx,(%rax)
  40286a:	48 83 c4 08          	add    $0x8,%rsp
  40286e:	c3                   	retq   
  40286f:	90                   	nop
  402870:	48 8b 03             	mov    (%rbx),%rax
  402873:	e8 68 fd ff ff       	callq  4025e0 <camlCamlinternalFormatBasics__erase_rel_1146>
  402878:	48 89 c3             	mov    %rax,%rbx
  40287b:	49 83 ef 10          	sub    $0x10,%r15
  40287f:	48 8d 05 1a a6 22 00 	lea    0x22a61a(%rip),%rax        # 62cea0 <caml_young_limit>
  402886:	4c 3b 38             	cmp    (%rax),%r15
  402889:	0f 82 c0 00 00 00    	jb     40294f <camlCamlinternalFormatBasics__erase_rel_1146+0x36f>
  40288f:	49 8d 47 08          	lea    0x8(%r15),%rax
  402893:	48 c7 40 f8 0b 04 00 	movq   $0x40b,-0x8(%rax)
  40289a:	00 
  40289b:	48 89 18             	mov    %rbx,(%rax)
  40289e:	48 83 c4 08          	add    $0x8,%rsp
  4028a2:	c3                   	retq   
  4028a3:	90                   	nop
  4028a4:	48 8b 03             	mov    (%rbx),%rax
  4028a7:	e8 34 fd ff ff       	callq  4025e0 <camlCamlinternalFormatBasics__erase_rel_1146>
  4028ac:	48 89 c3             	mov    %rax,%rbx
  4028af:	49 83 ef 10          	sub    $0x10,%r15
  4028b3:	48 8d 05 e6 a5 22 00 	lea    0x22a5e6(%rip),%rax        # 62cea0 <caml_young_limit>
  4028ba:	4c 3b 38             	cmp    (%rax),%r15
  4028bd:	0f 82 82 00 00 00    	jb     402945 <camlCamlinternalFormatBasics__erase_rel_1146+0x365>
  4028c3:	49 8d 47 08          	lea    0x8(%r15),%rax
  4028c7:	48 c7 40 f8 0c 04 00 	movq   $0x40c,-0x8(%rax)
  4028ce:	00 
  4028cf:	48 89 18             	mov    %rbx,(%rax)
  4028d2:	48 83 c4 08          	add    $0x8,%rsp
  4028d6:	c3                   	retq   
  4028d7:	90                   	nop
  4028d8:	48 8b 03             	mov    (%rbx),%rax
  4028db:	e8 00 fd ff ff       	callq  4025e0 <camlCamlinternalFormatBasics__erase_rel_1146>
  4028e0:	48 89 c3             	mov    %rax,%rbx
  4028e3:	49 83 ef 10          	sub    $0x10,%r15
  4028e7:	48 8d 05 b2 a5 22 00 	lea    0x22a5b2(%rip),%rax        # 62cea0 <caml_young_limit>
  4028ee:	4c 3b 38             	cmp    (%rax),%r15
  4028f1:	72 4b                	jb     40293e <camlCamlinternalFormatBasics__erase_rel_1146+0x35e>
  4028f3:	49 8d 47 08          	lea    0x8(%r15),%rax
  4028f7:	48 c7 40 f8 0d 04 00 	movq   $0x40d,-0x8(%rax)
  4028fe:	00 
  4028ff:	48 89 18             	mov    %rbx,(%rax)
  402902:	48 83 c4 08          	add    $0x8,%rsp
  402906:	c3                   	retq   
  402907:	90                   	nop
  402908:	48 8b 03             	mov    (%rbx),%rax
  40290b:	e8 d0 fc ff ff       	callq  4025e0 <camlCamlinternalFormatBasics__erase_rel_1146>
  402910:	48 89 c3             	mov    %rax,%rbx
  402913:	49 83 ef 10          	sub    $0x10,%r15
  402917:	48 8d 05 82 a5 22 00 	lea    0x22a582(%rip),%rax        # 62cea0 <caml_young_limit>
  40291e:	4c 3b 38             	cmp    (%rax),%r15
  402921:	72 14                	jb     402937 <camlCamlinternalFormatBasics__erase_rel_1146+0x357>
  402923:	49 8d 47 08          	lea    0x8(%r15),%rax
  402927:	48 c7 40 f8 0e 04 00 	movq   $0x40e,-0x8(%rax)
  40292e:	00 
  40292f:	48 89 18             	mov    %rbx,(%rax)
  402932:	48 83 c4 08          	add    $0x8,%rsp
  402936:	c3                   	retq   
  402937:	e8 e4 71 01 00       	callq  419b20 <caml_call_gc>
  40293c:	eb d5                	jmp    402913 <camlCamlinternalFormatBasics__erase_rel_1146+0x333>
  40293e:	e8 dd 71 01 00       	callq  419b20 <caml_call_gc>
  402943:	eb 9e                	jmp    4028e3 <camlCamlinternalFormatBasics__erase_rel_1146+0x303>
  402945:	e8 d6 71 01 00       	callq  419b20 <caml_call_gc>
  40294a:	e9 60 ff ff ff       	jmpq   4028af <camlCamlinternalFormatBasics__erase_rel_1146+0x2cf>
  40294f:	e8 cc 71 01 00       	callq  419b20 <caml_call_gc>
  402954:	e9 22 ff ff ff       	jmpq   40287b <camlCamlinternalFormatBasics__erase_rel_1146+0x29b>
  402959:	e8 c2 71 01 00       	callq  419b20 <caml_call_gc>
  40295e:	e9 e4 fe ff ff       	jmpq   402847 <camlCamlinternalFormatBasics__erase_rel_1146+0x267>
  402963:	e8 b8 71 01 00       	callq  419b20 <caml_call_gc>
  402968:	e9 9a fe ff ff       	jmpq   402807 <camlCamlinternalFormatBasics__erase_rel_1146+0x227>
  40296d:	e8 ae 71 01 00       	callq  419b20 <caml_call_gc>
  402972:	e9 49 fe ff ff       	jmpq   4027c0 <camlCamlinternalFormatBasics__erase_rel_1146+0x1e0>
  402977:	e8 a4 71 01 00       	callq  419b20 <caml_call_gc>
  40297c:	e9 0a fe ff ff       	jmpq   40278b <camlCamlinternalFormatBasics__erase_rel_1146+0x1ab>
  402981:	e8 9a 71 01 00       	callq  419b20 <caml_call_gc>
  402986:	e9 cc fd ff ff       	jmpq   402757 <camlCamlinternalFormatBasics__erase_rel_1146+0x177>
  40298b:	e8 90 71 01 00       	callq  419b20 <caml_call_gc>
  402990:	e9 8e fd ff ff       	jmpq   402723 <camlCamlinternalFormatBasics__erase_rel_1146+0x143>
  402995:	e8 86 71 01 00       	callq  419b20 <caml_call_gc>
  40299a:	e9 50 fd ff ff       	jmpq   4026ef <camlCamlinternalFormatBasics__erase_rel_1146+0x10f>
  40299f:	e8 7c 71 01 00       	callq  419b20 <caml_call_gc>
  4029a4:	e9 12 fd ff ff       	jmpq   4026bb <camlCamlinternalFormatBasics__erase_rel_1146+0xdb>
  4029a9:	e8 72 71 01 00       	callq  419b20 <caml_call_gc>
  4029ae:	e9 d4 fc ff ff       	jmpq   402687 <camlCamlinternalFormatBasics__erase_rel_1146+0xa7>
  4029b3:	e8 68 71 01 00       	callq  419b20 <caml_call_gc>
  4029b8:	e9 96 fc ff ff       	jmpq   402653 <camlCamlinternalFormatBasics__erase_rel_1146+0x73>
  4029bd:	e8 5e 71 01 00       	callq  419b20 <caml_call_gc>
  4029c2:	e9 58 fc ff ff       	jmpq   40261f <camlCamlinternalFormatBasics__erase_rel_1146+0x3f>
  4029c7:	66 0f 1f 84 00 00 00 	nopw   0x0(%rax,%rax,1)
  4029ce:	00 00 

00000000004029d0 <camlCamlinternalFormatBasics__concat_fmtty_1239>:
  4029d0:	48 83 ec 08          	sub    $0x8,%rsp
  4029d4:	48 89 c7             	mov    %rax,%rdi
  4029d7:	40 f6 c7 01          	test   $0x1,%dil
  4029db:	74 0b                	je     4029e8 <camlCamlinternalFormatBasics__concat_fmtty_1239+0x18>
  4029dd:	48 89 d8             	mov    %rbx,%rax
  4029e0:	48 83 c4 08          	add    $0x8,%rsp
  4029e4:	c3                   	retq   
  4029e5:	0f 1f 00             	nopl   (%rax)
  4029e8:	48 89 3c 24          	mov    %rdi,(%rsp)
  4029ec:	48 0f b6 47 f8       	movzbq -0x8(%rdi),%rax
  4029f1:	48 8d 15 14 af 01 00 	lea    0x1af14(%rip),%rdx        # 41d90c <caml_absf_mask+0x4c>
  4029f8:	48 63 04 82          	movslq (%rdx,%rax,4),%rax
  4029fc:	48 01 c2             	add    %rax,%rdx
  4029ff:	ff e2                	jmpq   *%rdx
  402a01:	0f 1f 00             	nopl   (%rax)
  402a04:	48 8b 07             	mov    (%rdi),%rax
  402a07:	e8 c4 ff ff ff       	callq  4029d0 <camlCamlinternalFormatBasics__concat_fmtty_1239>
  402a0c:	48 89 c3             	mov    %rax,%rbx
  402a0f:	49 83 ef 10          	sub    $0x10,%r15
  402a13:	48 8d 05 86 a4 22 00 	lea    0x22a486(%rip),%rax        # 62cea0 <caml_young_limit>
  402a1a:	4c 3b 38             	cmp    (%rax),%r15
  402a1d:	0f 82 8a 03 00 00    	jb     402dad <camlCamlinternalFormatBasics__concat_fmtty_1239+0x3dd>
  402a23:	49 8d 47 08          	lea    0x8(%r15),%rax
  402a27:	48 c7 40 f8 00 04 00 	movq   $0x400,-0x8(%rax)
  402a2e:	00 
  402a2f:	48 89 18             	mov    %rbx,(%rax)
  402a32:	48 83 c4 08          	add    $0x8,%rsp
  402a36:	c3                   	retq   
  402a37:	90                   	nop
  402a38:	48 8b 07             	mov    (%rdi),%rax
  402a3b:	e8 90 ff ff ff       	callq  4029d0 <camlCamlinternalFormatBasics__concat_fmtty_1239>
  402a40:	48 89 c3             	mov    %rax,%rbx
  402a43:	49 83 ef 10          	sub    $0x10,%r15
  402a47:	48 8d 05 52 a4 22 00 	lea    0x22a452(%rip),%rax        # 62cea0 <caml_young_limit>
  402a4e:	4c 3b 38             	cmp    (%rax),%r15
  402a51:	0f 82 4c 03 00 00    	jb     402da3 <camlCamlinternalFormatBasics__concat_fmtty_1239+0x3d3>
  402a57:	49 8d 47 08          	lea    0x8(%r15),%rax
  402a5b:	48 c7 40 f8 01 04 00 	movq   $0x401,-0x8(%rax)
  402a62:	00 
  402a63:	48 89 18             	mov    %rbx,(%rax)
  402a66:	48 83 c4 08          	add    $0x8,%rsp
  402a6a:	c3                   	retq   
  402a6b:	90                   	nop
  402a6c:	48 8b 07             	mov    (%rdi),%rax
  402a6f:	e8 5c ff ff ff       	callq  4029d0 <camlCamlinternalFormatBasics__concat_fmtty_1239>
  402a74:	48 89 c3             	mov    %rax,%rbx
  402a77:	49 83 ef 10          	sub    $0x10,%r15
  402a7b:	48 8d 05 1e a4 22 00 	lea    0x22a41e(%rip),%rax        # 62cea0 <caml_young_limit>
  402a82:	4c 3b 38             	cmp    (%rax),%r15
  402a85:	0f 82 0e 03 00 00    	jb     402d99 <camlCamlinternalFormatBasics__concat_fmtty_1239+0x3c9>
  402a8b:	49 8d 47 08          	lea    0x8(%r15),%rax
  402a8f:	48 c7 40 f8 02 04 00 	movq   $0x402,-0x8(%rax)
  402a96:	00 
  402a97:	48 89 18             	mov    %rbx,(%rax)
  402a9a:	48 83 c4 08          	add    $0x8,%rsp
  402a9e:	c3                   	retq   
  402a9f:	90                   	nop
  402aa0:	48 8b 07             	mov    (%rdi),%rax
  402aa3:	e8 28 ff ff ff       	callq  4029d0 <camlCamlinternalFormatBasics__concat_fmtty_1239>
  402aa8:	48 89 c3             	mov    %rax,%rbx
  402aab:	49 83 ef 10          	sub    $0x10,%r15
  402aaf:	48 8d 05 ea a3 22 00 	lea    0x22a3ea(%rip),%rax        # 62cea0 <caml_young_limit>
  402ab6:	4c 3b 38             	cmp    (%rax),%r15
  402ab9:	0f 82 d0 02 00 00    	jb     402d8f <camlCamlinternalFormatBasics__concat_fmtty_1239+0x3bf>
  402abf:	49 8d 47 08          	lea    0x8(%r15),%rax
  402ac3:	48 c7 40 f8 03 04 00 	movq   $0x403,-0x8(%rax)
  402aca:	00 
  402acb:	48 89 18             	mov    %rbx,(%rax)
  402ace:	48 83 c4 08          	add    $0x8,%rsp
  402ad2:	c3                   	retq   
  402ad3:	90                   	nop
  402ad4:	48 8b 07             	mov    (%rdi),%rax
  402ad7:	e8 f4 fe ff ff       	callq  4029d0 <camlCamlinternalFormatBasics__concat_fmtty_1239>
  402adc:	48 89 c3             	mov    %rax,%rbx
  402adf:	49 83 ef 10          	sub    $0x10,%r15
  402ae3:	48 8d 05 b6 a3 22 00 	lea    0x22a3b6(%rip),%rax        # 62cea0 <caml_young_limit>
  402aea:	4c 3b 38             	cmp    (%rax),%r15
  402aed:	0f 82 92 02 00 00    	jb     402d85 <camlCamlinternalFormatBasics__concat_fmtty_1239+0x3b5>
  402af3:	49 8d 47 08          	lea    0x8(%r15),%rax
  402af7:	48 c7 40 f8 04 04 00 	movq   $0x404,-0x8(%rax)
  402afe:	00 
  402aff:	48 89 18             	mov    %rbx,(%rax)
  402b02:	48 83 c4 08          	add    $0x8,%rsp
  402b06:	c3                   	retq   
  402b07:	90                   	nop
  402b08:	48 8b 07             	mov    (%rdi),%rax
  402b0b:	e8 c0 fe ff ff       	callq  4029d0 <camlCamlinternalFormatBasics__concat_fmtty_1239>
  402b10:	48 89 c3             	mov    %rax,%rbx
  402b13:	49 83 ef 10          	sub    $0x10,%r15
  402b17:	48 8d 05 82 a3 22 00 	lea    0x22a382(%rip),%rax        # 62cea0 <caml_young_limit>
  402b1e:	4c 3b 38             	cmp    (%rax),%r15
  402b21:	0f 82 54 02 00 00    	jb     402d7b <camlCamlinternalFormatBasics__concat_fmtty_1239+0x3ab>
  402b27:	49 8d 47 08          	lea    0x8(%r15),%rax
  402b2b:	48 c7 40 f8 05 04 00 	movq   $0x405,-0x8(%rax)
  402b32:	00 
  402b33:	48 89 18             	mov    %rbx,(%rax)
  402b36:	48 83 c4 08          	add    $0x8,%rsp
  402b3a:	c3                   	retq   
  402b3b:	90                   	nop
  402b3c:	48 8b 07             	mov    (%rdi),%rax
  402b3f:	e8 8c fe ff ff       	callq  4029d0 <camlCamlinternalFormatBasics__concat_fmtty_1239>
  402b44:	48 89 c3             	mov    %rax,%rbx
  402b47:	49 83 ef 10          	sub    $0x10,%r15
  402b4b:	48 8d 05 4e a3 22 00 	lea    0x22a34e(%rip),%rax        # 62cea0 <caml_young_limit>
  402b52:	4c 3b 38             	cmp    (%rax),%r15
  402b55:	0f 82 16 02 00 00    	jb     402d71 <camlCamlinternalFormatBasics__concat_fmtty_1239+0x3a1>
  402b5b:	49 8d 47 08          	lea    0x8(%r15),%rax
  402b5f:	48 c7 40 f8 06 04 00 	movq   $0x406,-0x8(%rax)
  402b66:	00 
  402b67:	48 89 18             	mov    %rbx,(%rax)
  402b6a:	48 83 c4 08          	add    $0x8,%rsp
  402b6e:	c3                   	retq   
  402b6f:	90                   	nop
  402b70:	48 8b 07             	mov    (%rdi),%rax
  402b73:	e8 58 fe ff ff       	callq  4029d0 <camlCamlinternalFormatBasics__concat_fmtty_1239>
  402b78:	48 89 c3             	mov    %rax,%rbx
  402b7b:	49 83 ef 10          	sub    $0x10,%r15
  402b7f:	48 8d 05 1a a3 22 00 	lea    0x22a31a(%rip),%rax        # 62cea0 <caml_young_limit>
  402b86:	4c 3b 38             	cmp    (%rax),%r15
  402b89:	0f 82 d8 01 00 00    	jb     402d67 <camlCamlinternalFormatBasics__concat_fmtty_1239+0x397>
  402b8f:	49 8d 47 08          	lea    0x8(%r15),%rax
  402b93:	48 c7 40 f8 07 04 00 	movq   $0x407,-0x8(%rax)
  402b9a:	00 
  402b9b:	48 89 18             	mov    %rbx,(%rax)
  402b9e:	48 83 c4 08          	add    $0x8,%rsp
  402ba2:	c3                   	retq   
  402ba3:	90                   	nop
  402ba4:	48 8b 47 08          	mov    0x8(%rdi),%rax
  402ba8:	e8 23 fe ff ff       	callq  4029d0 <camlCamlinternalFormatBasics__concat_fmtty_1239>
  402bad:	48 89 c3             	mov    %rax,%rbx
  402bb0:	49 83 ef 18          	sub    $0x18,%r15
  402bb4:	48 8d 05 e5 a2 22 00 	lea    0x22a2e5(%rip),%rax        # 62cea0 <caml_young_limit>
  402bbb:	4c 3b 38             	cmp    (%rax),%r15
  402bbe:	0f 82 99 01 00 00    	jb     402d5d <camlCamlinternalFormatBasics__concat_fmtty_1239+0x38d>
  402bc4:	49 8d 47 08          	lea    0x8(%r15),%rax
  402bc8:	48 c7 40 f8 08 08 00 	movq   $0x808,-0x8(%rax)
  402bcf:	00 
  402bd0:	48 8b 3c 24          	mov    (%rsp),%rdi
  402bd4:	48 8b 3f             	mov    (%rdi),%rdi
  402bd7:	48 89 38             	mov    %rdi,(%rax)
  402bda:	48 89 58 08          	mov    %rbx,0x8(%rax)
  402bde:	48 83 c4 08          	add    $0x8,%rsp
  402be2:	c3                   	retq   
  402be3:	90                   	nop
  402be4:	48 8b 47 10          	mov    0x10(%rdi),%rax
  402be8:	e8 e3 fd ff ff       	callq  4029d0 <camlCamlinternalFormatBasics__concat_fmtty_1239>
  402bed:	48 89 c3             	mov    %rax,%rbx
  402bf0:	49 83 ef 20          	sub    $0x20,%r15
  402bf4:	48 8d 05 a5 a2 22 00 	lea    0x22a2a5(%rip),%rax        # 62cea0 <caml_young_limit>
  402bfb:	4c 3b 38             	cmp    (%rax),%r15
  402bfe:	0f 82 4f 01 00 00    	jb     402d53 <camlCamlinternalFormatBasics__concat_fmtty_1239+0x383>
  402c04:	49 8d 47 08          	lea    0x8(%r15),%rax
  402c08:	48 c7 40 f8 09 0c 00 	movq   $0xc09,-0x8(%rax)
  402c0f:	00 
  402c10:	48 8b 34 24          	mov    (%rsp),%rsi
  402c14:	48 8b 3e             	mov    (%rsi),%rdi
  402c17:	48 89 38             	mov    %rdi,(%rax)
  402c1a:	48 8b 7e 08          	mov    0x8(%rsi),%rdi
  402c1e:	48 89 78 08          	mov    %rdi,0x8(%rax)
  402c22:	48 89 58 10          	mov    %rbx,0x10(%rax)
  402c26:	48 83 c4 08          	add    $0x8,%rsp
  402c2a:	c3                   	retq   
  402c2b:	90                   	nop
  402c2c:	48 8b 07             	mov    (%rdi),%rax
  402c2f:	e8 9c fd ff ff       	callq  4029d0 <camlCamlinternalFormatBasics__concat_fmtty_1239>
  402c34:	48 89 c3             	mov    %rax,%rbx
  402c37:	49 83 ef 10          	sub    $0x10,%r15
  402c3b:	48 8d 05 5e a2 22 00 	lea    0x22a25e(%rip),%rax        # 62cea0 <caml_young_limit>
  402c42:	4c 3b 38             	cmp    (%rax),%r15
  402c45:	0f 82 fe 00 00 00    	jb     402d49 <camlCamlinternalFormatBasics__concat_fmtty_1239+0x379>
  402c4b:	49 8d 47 08          	lea    0x8(%r15),%rax
  402c4f:	48 c7 40 f8 0a 04 00 	movq   $0x40a,-0x8(%rax)
  402c56:	00 
  402c57:	48 89 18             	mov    %rbx,(%rax)
  402c5a:	48 83 c4 08          	add    $0x8,%rsp
  402c5e:	c3                   	retq   
  402c5f:	90                   	nop
  402c60:	48 8b 07             	mov    (%rdi),%rax
  402c63:	e8 68 fd ff ff       	callq  4029d0 <camlCamlinternalFormatBasics__concat_fmtty_1239>
  402c68:	48 89 c3             	mov    %rax,%rbx
  402c6b:	49 83 ef 10          	sub    $0x10,%r15
  402c6f:	48 8d 05 2a a2 22 00 	lea    0x22a22a(%rip),%rax        # 62cea0 <caml_young_limit>
  402c76:	4c 3b 38             	cmp    (%rax),%r15
  402c79:	0f 82 c0 00 00 00    	jb     402d3f <camlCamlinternalFormatBasics__concat_fmtty_1239+0x36f>
  402c7f:	49 8d 47 08          	lea    0x8(%r15),%rax
  402c83:	48 c7 40 f8 0b 04 00 	movq   $0x40b,-0x8(%rax)
  402c8a:	00 
  402c8b:	48 89 18             	mov    %rbx,(%rax)
  402c8e:	48 83 c4 08          	add    $0x8,%rsp
  402c92:	c3                   	retq   
  402c93:	90                   	nop
  402c94:	48 8b 07             	mov    (%rdi),%rax
  402c97:	e8 34 fd ff ff       	callq  4029d0 <camlCamlinternalFormatBasics__concat_fmtty_1239>
  402c9c:	48 89 c3             	mov    %rax,%rbx
  402c9f:	49 83 ef 10          	sub    $0x10,%r15
  402ca3:	48 8d 05 f6 a1 22 00 	lea    0x22a1f6(%rip),%rax        # 62cea0 <caml_young_limit>
  402caa:	4c 3b 38             	cmp    (%rax),%r15
  402cad:	0f 82 82 00 00 00    	jb     402d35 <camlCamlinternalFormatBasics__concat_fmtty_1239+0x365>
  402cb3:	49 8d 47 08          	lea    0x8(%r15),%rax
  402cb7:	48 c7 40 f8 0c 04 00 	movq   $0x40c,-0x8(%rax)
  402cbe:	00 
  402cbf:	48 89 18             	mov    %rbx,(%rax)
  402cc2:	48 83 c4 08          	add    $0x8,%rsp
  402cc6:	c3                   	retq   
  402cc7:	90                   	nop
  402cc8:	48 8b 07             	mov    (%rdi),%rax
  402ccb:	e8 00 fd ff ff       	callq  4029d0 <camlCamlinternalFormatBasics__concat_fmtty_1239>
  402cd0:	48 89 c3             	mov    %rax,%rbx
  402cd3:	49 83 ef 10          	sub    $0x10,%r15
  402cd7:	48 8d 05 c2 a1 22 00 	lea    0x22a1c2(%rip),%rax        # 62cea0 <caml_young_limit>
  402cde:	4c 3b 38             	cmp    (%rax),%r15
  402ce1:	72 4b                	jb     402d2e <camlCamlinternalFormatBasics__concat_fmtty_1239+0x35e>
  402ce3:	49 8d 47 08          	lea    0x8(%r15),%rax
  402ce7:	48 c7 40 f8 0d 04 00 	movq   $0x40d,-0x8(%rax)
  402cee:	00 
  402cef:	48 89 18             	mov    %rbx,(%rax)
  402cf2:	48 83 c4 08          	add    $0x8,%rsp
  402cf6:	c3                   	retq   
  402cf7:	90                   	nop
  402cf8:	48 8b 07             	mov    (%rdi),%rax
  402cfb:	e8 d0 fc ff ff       	callq  4029d0 <camlCamlinternalFormatBasics__concat_fmtty_1239>
  402d00:	48 89 c3             	mov    %rax,%rbx
  402d03:	49 83 ef 10          	sub    $0x10,%r15
  402d07:	48 8d 05 92 a1 22 00 	lea    0x22a192(%rip),%rax        # 62cea0 <caml_young_limit>
  402d0e:	4c 3b 38             	cmp    (%rax),%r15
  402d11:	72 14                	jb     402d27 <camlCamlinternalFormatBasics__concat_fmtty_1239+0x357>
  402d13:	49 8d 47 08          	lea    0x8(%r15),%rax
  402d17:	48 c7 40 f8 0e 04 00 	movq   $0x40e,-0x8(%rax)
  402d1e:	00 
  402d1f:	48 89 18             	mov    %rbx,(%rax)
  402d22:	48 83 c4 08          	add    $0x8,%rsp
  402d26:	c3                   	retq   
  402d27:	e8 f4 6d 01 00       	callq  419b20 <caml_call_gc>
  402d2c:	eb d5                	jmp    402d03 <camlCamlinternalFormatBasics__concat_fmtty_1239+0x333>
  402d2e:	e8 ed 6d 01 00       	callq  419b20 <caml_call_gc>
  402d33:	eb 9e                	jmp    402cd3 <camlCamlinternalFormatBasics__concat_fmtty_1239+0x303>
  402d35:	e8 e6 6d 01 00       	callq  419b20 <caml_call_gc>
  402d3a:	e9 60 ff ff ff       	jmpq   402c9f <camlCamlinternalFormatBasics__concat_fmtty_1239+0x2cf>
  402d3f:	e8 dc 6d 01 00       	callq  419b20 <caml_call_gc>
  402d44:	e9 22 ff ff ff       	jmpq   402c6b <camlCamlinternalFormatBasics__concat_fmtty_1239+0x29b>
  402d49:	e8 d2 6d 01 00       	callq  419b20 <caml_call_gc>
  402d4e:	e9 e4 fe ff ff       	jmpq   402c37 <camlCamlinternalFormatBasics__concat_fmtty_1239+0x267>
  402d53:	e8 c8 6d 01 00       	callq  419b20 <caml_call_gc>
  402d58:	e9 93 fe ff ff       	jmpq   402bf0 <camlCamlinternalFormatBasics__concat_fmtty_1239+0x220>
  402d5d:	e8 be 6d 01 00       	callq  419b20 <caml_call_gc>
  402d62:	e9 49 fe ff ff       	jmpq   402bb0 <camlCamlinternalFormatBasics__concat_fmtty_1239+0x1e0>
  402d67:	e8 b4 6d 01 00       	callq  419b20 <caml_call_gc>
  402d6c:	e9 0a fe ff ff       	jmpq   402b7b <camlCamlinternalFormatBasics__concat_fmtty_1239+0x1ab>
  402d71:	e8 aa 6d 01 00       	callq  419b20 <caml_call_gc>
  402d76:	e9 cc fd ff ff       	jmpq   402b47 <camlCamlinternalFormatBasics__concat_fmtty_1239+0x177>
  402d7b:	e8 a0 6d 01 00       	callq  419b20 <caml_call_gc>
  402d80:	e9 8e fd ff ff       	jmpq   402b13 <camlCamlinternalFormatBasics__concat_fmtty_1239+0x143>
  402d85:	e8 96 6d 01 00       	callq  419b20 <caml_call_gc>
  402d8a:	e9 50 fd ff ff       	jmpq   402adf <camlCamlinternalFormatBasics__concat_fmtty_1239+0x10f>
  402d8f:	e8 8c 6d 01 00       	callq  419b20 <caml_call_gc>
  402d94:	e9 12 fd ff ff       	jmpq   402aab <camlCamlinternalFormatBasics__concat_fmtty_1239+0xdb>
  402d99:	e8 82 6d 01 00       	callq  419b20 <caml_call_gc>
  402d9e:	e9 d4 fc ff ff       	jmpq   402a77 <camlCamlinternalFormatBasics__concat_fmtty_1239+0xa7>
  402da3:	e8 78 6d 01 00       	callq  419b20 <caml_call_gc>
  402da8:	e9 96 fc ff ff       	jmpq   402a43 <camlCamlinternalFormatBasics__concat_fmtty_1239+0x73>
  402dad:	e8 6e 6d 01 00       	callq  419b20 <caml_call_gc>
  402db2:	e9 58 fc ff ff       	jmpq   402a0f <camlCamlinternalFormatBasics__concat_fmtty_1239+0x3f>
  402db7:	66 0f 1f 84 00 00 00 	nopw   0x0(%rax,%rax,1)
  402dbe:	00 00 

0000000000402dc0 <camlCamlinternalFormatBasics__concat_fmt_1337>:
  402dc0:	48 83 ec 08          	sub    $0x8,%rsp
  402dc4:	48 89 c7             	mov    %rax,%rdi
  402dc7:	40 f6 c7 01          	test   $0x1,%dil
  402dcb:	74 0b                	je     402dd8 <camlCamlinternalFormatBasics__concat_fmt_1337+0x18>
  402dcd:	48 89 d8             	mov    %rbx,%rax
  402dd0:	48 83 c4 08          	add    $0x8,%rsp
  402dd4:	c3                   	retq   
  402dd5:	0f 1f 00             	nopl   (%rax)
  402dd8:	48 89 3c 24          	mov    %rdi,(%rsp)
  402ddc:	48 0f b6 47 f8       	movzbq -0x8(%rdi),%rax
  402de1:	48 8d 15 60 ab 01 00 	lea    0x1ab60(%rip),%rdx        # 41d948 <caml_absf_mask+0x88>
  402de8:	48 63 04 82          	movslq (%rdx,%rax,4),%rax
  402dec:	48 01 c2             	add    %rax,%rdx
  402def:	ff e2                	jmpq   *%rdx
  402df1:	0f 1f 00             	nopl   (%rax)
  402df4:	48 8b 07             	mov    (%rdi),%rax
  402df7:	e8 c4 ff ff ff       	callq  402dc0 <camlCamlinternalFormatBasics__concat_fmt_1337>
  402dfc:	48 89 c3             	mov    %rax,%rbx
  402dff:	49 83 ef 10          	sub    $0x10,%r15
  402e03:	48 8d 05 96 a0 22 00 	lea    0x22a096(%rip),%rax        # 62cea0 <caml_young_limit>
  402e0a:	4c 3b 38             	cmp    (%rax),%r15
  402e0d:	0f 82 15 07 00 00    	jb     403528 <camlCamlinternalFormatBasics__concat_fmt_1337+0x768>
  402e13:	49 8d 47 08          	lea    0x8(%r15),%rax
  402e17:	48 c7 40 f8 00 04 00 	movq   $0x400,-0x8(%rax)
  402e1e:	00 
  402e1f:	48 89 18             	mov    %rbx,(%rax)
  402e22:	48 83 c4 08          	add    $0x8,%rsp
  402e26:	c3                   	retq   
  402e27:	90                   	nop
  402e28:	48 8b 07             	mov    (%rdi),%rax
  402e2b:	e8 90 ff ff ff       	callq  402dc0 <camlCamlinternalFormatBasics__concat_fmt_1337>
  402e30:	48 89 c3             	mov    %rax,%rbx
  402e33:	49 83 ef 10          	sub    $0x10,%r15
  402e37:	48 8d 05 62 a0 22 00 	lea    0x22a062(%rip),%rax        # 62cea0 <caml_young_limit>
  402e3e:	4c 3b 38             	cmp    (%rax),%r15
  402e41:	0f 82 d7 06 00 00    	jb     40351e <camlCamlinternalFormatBasics__concat_fmt_1337+0x75e>
  402e47:	49 8d 47 08          	lea    0x8(%r15),%rax
  402e4b:	48 c7 40 f8 01 04 00 	movq   $0x401,-0x8(%rax)
  402e52:	00 
  402e53:	48 89 18             	mov    %rbx,(%rax)
  402e56:	48 83 c4 08          	add    $0x8,%rsp
  402e5a:	c3                   	retq   
  402e5b:	90                   	nop
  402e5c:	48 8b 47 08          	mov    0x8(%rdi),%rax
  402e60:	e8 5b ff ff ff       	callq  402dc0 <camlCamlinternalFormatBasics__concat_fmt_1337>
  402e65:	48 89 c3             	mov    %rax,%rbx
  402e68:	49 83 ef 18          	sub    $0x18,%r15
  402e6c:	48 8d 05 2d a0 22 00 	lea    0x22a02d(%rip),%rax        # 62cea0 <caml_young_limit>
  402e73:	4c 3b 38             	cmp    (%rax),%r15
  402e76:	0f 82 98 06 00 00    	jb     403514 <camlCamlinternalFormatBasics__concat_fmt_1337+0x754>
  402e7c:	49 8d 47 08          	lea    0x8(%r15),%rax
  402e80:	48 c7 40 f8 02 08 00 	movq   $0x802,-0x8(%rax)
  402e87:	00 
  402e88:	48 8b 3c 24          	mov    (%rsp),%rdi
  402e8c:	48 8b 3f             	mov    (%rdi),%rdi
  402e8f:	48 89 38             	mov    %rdi,(%rax)
  402e92:	48 89 58 08          	mov    %rbx,0x8(%rax)
  402e96:	48 83 c4 08          	add    $0x8,%rsp
  402e9a:	c3                   	retq   
  402e9b:	90                   	nop
  402e9c:	48 8b 47 08          	mov    0x8(%rdi),%rax
  402ea0:	e8 1b ff ff ff       	callq  402dc0 <camlCamlinternalFormatBasics__concat_fmt_1337>
  402ea5:	48 89 c3             	mov    %rax,%rbx
  402ea8:	49 83 ef 18          	sub    $0x18,%r15
  402eac:	48 8d 05 ed 9f 22 00 	lea    0x229fed(%rip),%rax        # 62cea0 <caml_young_limit>
  402eb3:	4c 3b 38             	cmp    (%rax),%r15
  402eb6:	0f 82 4e 06 00 00    	jb     40350a <camlCamlinternalFormatBasics__concat_fmt_1337+0x74a>
  402ebc:	49 8d 47 08          	lea    0x8(%r15),%rax
  402ec0:	48 c7 40 f8 03 08 00 	movq   $0x803,-0x8(%rax)
  402ec7:	00 
  402ec8:	48 8b 3c 24          	mov    (%rsp),%rdi
  402ecc:	48 8b 3f             	mov    (%rdi),%rdi
  402ecf:	48 89 38             	mov    %rdi,(%rax)
  402ed2:	48 89 58 08          	mov    %rbx,0x8(%rax)
  402ed6:	48 83 c4 08          	add    $0x8,%rsp
  402eda:	c3                   	retq   
  402edb:	90                   	nop
  402edc:	48 8b 47 18          	mov    0x18(%rdi),%rax
  402ee0:	e8 db fe ff ff       	callq  402dc0 <camlCamlinternalFormatBasics__concat_fmt_1337>
  402ee5:	48 89 c3             	mov    %rax,%rbx
  402ee8:	49 83 ef 28          	sub    $0x28,%r15
  402eec:	48 8d 05 ad 9f 22 00 	lea    0x229fad(%rip),%rax        # 62cea0 <caml_young_limit>
  402ef3:	4c 3b 38             	cmp    (%rax),%r15
  402ef6:	0f 82 04 06 00 00    	jb     403500 <camlCamlinternalFormatBasics__concat_fmt_1337+0x740>
  402efc:	49 8d 47 08          	lea    0x8(%r15),%rax
  402f00:	48 c7 40 f8 04 10 00 	movq   $0x1004,-0x8(%rax)
  402f07:	00 
  402f08:	48 8b 34 24          	mov    (%rsp),%rsi
  402f0c:	48 8b 3e             	mov    (%rsi),%rdi
  402f0f:	48 89 38             	mov    %rdi,(%rax)
  402f12:	48 8b 7e 08          	mov    0x8(%rsi),%rdi
  402f16:	48 89 78 08          	mov    %rdi,0x8(%rax)
  402f1a:	48 8b 7e 10          	mov    0x10(%rsi),%rdi
  402f1e:	48 89 78 10          	mov    %rdi,0x10(%rax)
  402f22:	48 89 58 18          	mov    %rbx,0x18(%rax)
  402f26:	48 83 c4 08          	add    $0x8,%rsp
  402f2a:	c3                   	retq   
  402f2b:	90                   	nop
  402f2c:	48 8b 47 18          	mov    0x18(%rdi),%rax
  402f30:	e8 8b fe ff ff       	callq  402dc0 <camlCamlinternalFormatBasics__concat_fmt_1337>
  402f35:	48 89 c3             	mov    %rax,%rbx
  402f38:	49 83 ef 28          	sub    $0x28,%r15
  402f3c:	48 8d 05 5d 9f 22 00 	lea    0x229f5d(%rip),%rax        # 62cea0 <caml_young_limit>
  402f43:	4c 3b 38             	cmp    (%rax),%r15
  402f46:	0f 82 aa 05 00 00    	jb     4034f6 <camlCamlinternalFormatBasics__concat_fmt_1337+0x736>
  402f4c:	49 8d 47 08          	lea    0x8(%r15),%rax
  402f50:	48 c7 40 f8 05 10 00 	movq   $0x1005,-0x8(%rax)
  402f57:	00 
  402f58:	48 8b 34 24          	mov    (%rsp),%rsi
  402f5c:	48 8b 3e             	mov    (%rsi),%rdi
  402f5f:	48 89 38             	mov    %rdi,(%rax)
  402f62:	48 8b 7e 08          	mov    0x8(%rsi),%rdi
  402f66:	48 89 78 08          	mov    %rdi,0x8(%rax)
  402f6a:	48 8b 7e 10          	mov    0x10(%rsi),%rdi
  402f6e:	48 89 78 10          	mov    %rdi,0x10(%rax)
  402f72:	48 89 58 18          	mov    %rbx,0x18(%rax)
  402f76:	48 83 c4 08          	add    $0x8,%rsp
  402f7a:	c3                   	retq   
  402f7b:	90                   	nop
  402f7c:	48 8b 47 18          	mov    0x18(%rdi),%rax
  402f80:	e8 3b fe ff ff       	callq  402dc0 <camlCamlinternalFormatBasics__concat_fmt_1337>
  402f85:	48 89 c3             	mov    %rax,%rbx
  402f88:	49 83 ef 28          	sub    $0x28,%r15
  402f8c:	48 8d 05 0d 9f 22 00 	lea    0x229f0d(%rip),%rax        # 62cea0 <caml_young_limit>
  402f93:	4c 3b 38             	cmp    (%rax),%r15
  402f96:	0f 82 50 05 00 00    	jb     4034ec <camlCamlinternalFormatBasics__concat_fmt_1337+0x72c>
  402f9c:	49 8d 47 08          	lea    0x8(%r15),%rax
  402fa0:	48 c7 40 f8 06 10 00 	movq   $0x1006,-0x8(%rax)
  402fa7:	00 
  402fa8:	48 8b 34 24          	mov    (%rsp),%rsi
  402fac:	48 8b 3e             	mov    (%rsi),%rdi
  402faf:	48 89 38             	mov    %rdi,(%rax)
  402fb2:	48 8b 7e 08          	mov    0x8(%rsi),%rdi
  402fb6:	48 89 78 08          	mov    %rdi,0x8(%rax)
  402fba:	48 8b 7e 10          	mov    0x10(%rsi),%rdi
  402fbe:	48 89 78 10          	mov    %rdi,0x10(%rax)
  402fc2:	48 89 58 18          	mov    %rbx,0x18(%rax)
  402fc6:	48 83 c4 08          	add    $0x8,%rsp
  402fca:	c3                   	retq   
  402fcb:	90                   	nop
  402fcc:	48 8b 47 18          	mov    0x18(%rdi),%rax
  402fd0:	e8 eb fd ff ff       	callq  402dc0 <camlCamlinternalFormatBasics__concat_fmt_1337>
  402fd5:	48 89 c3             	mov    %rax,%rbx
  402fd8:	49 83 ef 28          	sub    $0x28,%r15
  402fdc:	48 8d 05 bd 9e 22 00 	lea    0x229ebd(%rip),%rax        # 62cea0 <caml_young_limit>
  402fe3:	4c 3b 38             	cmp    (%rax),%r15
  402fe6:	0f 82 f6 04 00 00    	jb     4034e2 <camlCamlinternalFormatBasics__concat_fmt_1337+0x722>
  402fec:	49 8d 47 08          	lea    0x8(%r15),%rax
  402ff0:	48 c7 40 f8 07 10 00 	movq   $0x1007,-0x8(%rax)
  402ff7:	00 
  402ff8:	48 8b 34 24          	mov    (%rsp),%rsi
  402ffc:	48 8b 3e             	mov    (%rsi),%rdi
  402fff:	48 89 38             	mov    %rdi,(%rax)
  403002:	48 8b 7e 08          	mov    0x8(%rsi),%rdi
  403006:	48 89 78 08          	mov    %rdi,0x8(%rax)
  40300a:	48 8b 7e 10          	mov    0x10(%rsi),%rdi
  40300e:	48 89 78 10          	mov    %rdi,0x10(%rax)
  403012:	48 89 58 18          	mov    %rbx,0x18(%rax)
  403016:	48 83 c4 08          	add    $0x8,%rsp
  40301a:	c3                   	retq   
  40301b:	90                   	nop
  40301c:	48 8b 47 18          	mov    0x18(%rdi),%rax
  403020:	e8 9b fd ff ff       	callq  402dc0 <camlCamlinternalFormatBasics__concat_fmt_1337>
  403025:	48 89 c3             	mov    %rax,%rbx
  403028:	49 83 ef 28          	sub    $0x28,%r15
  40302c:	48 8d 05 6d 9e 22 00 	lea    0x229e6d(%rip),%rax        # 62cea0 <caml_young_limit>
  403033:	4c 3b 38             	cmp    (%rax),%r15
  403036:	0f 82 9c 04 00 00    	jb     4034d8 <camlCamlinternalFormatBasics__concat_fmt_1337+0x718>
  40303c:	49 8d 47 08          	lea    0x8(%r15),%rax
  403040:	48 c7 40 f8 08 10 00 	movq   $0x1008,-0x8(%rax)
  403047:	00 
  403048:	48 8b 34 24          	mov    (%rsp),%rsi
  40304c:	48 8b 3e             	mov    (%rsi),%rdi
  40304f:	48 89 38             	mov    %rdi,(%rax)
  403052:	48 8b 7e 08          	mov    0x8(%rsi),%rdi
  403056:	48 89 78 08          	mov    %rdi,0x8(%rax)
  40305a:	48 8b 7e 10          	mov    0x10(%rsi),%rdi
  40305e:	48 89 78 10          	mov    %rdi,0x10(%rax)
  403062:	48 89 58 18          	mov    %rbx,0x18(%rax)
  403066:	48 83 c4 08          	add    $0x8,%rsp
  40306a:	c3                   	retq   
  40306b:	90                   	nop
  40306c:	48 8b 07             	mov    (%rdi),%rax
  40306f:	e8 4c fd ff ff       	callq  402dc0 <camlCamlinternalFormatBasics__concat_fmt_1337>
  403074:	48 89 c3             	mov    %rax,%rbx
  403077:	49 83 ef 10          	sub    $0x10,%r15
  40307b:	48 8d 05 1e 9e 22 00 	lea    0x229e1e(%rip),%rax        # 62cea0 <caml_young_limit>
  403082:	4c 3b 38             	cmp    (%rax),%r15
  403085:	0f 82 43 04 00 00    	jb     4034ce <camlCamlinternalFormatBasics__concat_fmt_1337+0x70e>
  40308b:	49 8d 47 08          	lea    0x8(%r15),%rax
  40308f:	48 c7 40 f8 09 04 00 	movq   $0x409,-0x8(%rax)
  403096:	00 
  403097:	48 89 18             	mov    %rbx,(%rax)
  40309a:	48 83 c4 08          	add    $0x8,%rsp
  40309e:	c3                   	retq   
  40309f:	90                   	nop
  4030a0:	48 8b 07             	mov    (%rdi),%rax
  4030a3:	e8 18 fd ff ff       	callq  402dc0 <camlCamlinternalFormatBasics__concat_fmt_1337>
  4030a8:	48 89 c3             	mov    %rax,%rbx
  4030ab:	49 83 ef 10          	sub    $0x10,%r15
  4030af:	48 8d 05 ea 9d 22 00 	lea    0x229dea(%rip),%rax        # 62cea0 <caml_young_limit>
  4030b6:	4c 3b 38             	cmp    (%rax),%r15
  4030b9:	0f 82 05 04 00 00    	jb     4034c4 <camlCamlinternalFormatBasics__concat_fmt_1337+0x704>
  4030bf:	49 8d 47 08          	lea    0x8(%r15),%rax
  4030c3:	48 c7 40 f8 0a 04 00 	movq   $0x40a,-0x8(%rax)
  4030ca:	00 
  4030cb:	48 89 18             	mov    %rbx,(%rax)
  4030ce:	48 83 c4 08          	add    $0x8,%rsp
  4030d2:	c3                   	retq   
  4030d3:	90                   	nop
  4030d4:	48 8b 47 08          	mov    0x8(%rdi),%rax
  4030d8:	e8 e3 fc ff ff       	callq  402dc0 <camlCamlinternalFormatBasics__concat_fmt_1337>
  4030dd:	48 89 c3             	mov    %rax,%rbx
  4030e0:	49 83 ef 18          	sub    $0x18,%r15
  4030e4:	48 8d 05 b5 9d 22 00 	lea    0x229db5(%rip),%rax        # 62cea0 <caml_young_limit>
  4030eb:	4c 3b 38             	cmp    (%rax),%r15
  4030ee:	0f 82 c6 03 00 00    	jb     4034ba <camlCamlinternalFormatBasics__concat_fmt_1337+0x6fa>
  4030f4:	49 8d 47 08          	lea    0x8(%r15),%rax
  4030f8:	48 c7 40 f8 0b 08 00 	movq   $0x80b,-0x8(%rax)
  4030ff:	00 
  403100:	48 8b 3c 24          	mov    (%rsp),%rdi
  403104:	48 8b 3f             	mov    (%rdi),%rdi
  403107:	48 89 38             	mov    %rdi,(%rax)
  40310a:	48 89 58 08          	mov    %rbx,0x8(%rax)
  40310e:	48 83 c4 08          	add    $0x8,%rsp
  403112:	c3                   	retq   
  403113:	90                   	nop
  403114:	48 8b 47 08          	mov    0x8(%rdi),%rax
  403118:	e8 a3 fc ff ff       	callq  402dc0 <camlCamlinternalFormatBasics__concat_fmt_1337>
  40311d:	48 89 c3             	mov    %rax,%rbx
  403120:	49 83 ef 18          	sub    $0x18,%r15
  403124:	48 8d 05 75 9d 22 00 	lea    0x229d75(%rip),%rax        # 62cea0 <caml_young_limit>
  40312b:	4c 3b 38             	cmp    (%rax),%r15
  40312e:	0f 82 7c 03 00 00    	jb     4034b0 <camlCamlinternalFormatBasics__concat_fmt_1337+0x6f0>
  403134:	49 8d 47 08          	lea    0x8(%r15),%rax
  403138:	48 c7 40 f8 0c 08 00 	movq   $0x80c,-0x8(%rax)
  40313f:	00 
  403140:	48 8b 3c 24          	mov    (%rsp),%rdi
  403144:	48 8b 3f             	mov    (%rdi),%rdi
  403147:	48 89 38             	mov    %rdi,(%rax)
  40314a:	48 89 58 08          	mov    %rbx,0x8(%rax)
  40314e:	48 83 c4 08          	add    $0x8,%rsp
  403152:	c3                   	retq   
  403153:	90                   	nop
  403154:	48 8b 47 10          	mov    0x10(%rdi),%rax
  403158:	e8 63 fc ff ff       	callq  402dc0 <camlCamlinternalFormatBasics__concat_fmt_1337>
  40315d:	48 89 c3             	mov    %rax,%rbx
  403160:	49 83 ef 20          	sub    $0x20,%r15
  403164:	48 8d 05 35 9d 22 00 	lea    0x229d35(%rip),%rax        # 62cea0 <caml_young_limit>
  40316b:	4c 3b 38             	cmp    (%rax),%r15
  40316e:	0f 82 32 03 00 00    	jb     4034a6 <camlCamlinternalFormatBasics__concat_fmt_1337+0x6e6>
  403174:	49 8d 47 08          	lea    0x8(%r15),%rax
  403178:	48 c7 40 f8 0d 0c 00 	movq   $0xc0d,-0x8(%rax)
  40317f:	00 
  403180:	48 8b 34 24          	mov    (%rsp),%rsi
  403184:	48 8b 3e             	mov    (%rsi),%rdi
  403187:	48 89 38             	mov    %rdi,(%rax)
  40318a:	48 8b 7e 08          	mov    0x8(%rsi),%rdi
  40318e:	48 89 78 08          	mov    %rdi,0x8(%rax)
  403192:	48 89 58 10          	mov    %rbx,0x10(%rax)
  403196:	48 83 c4 08          	add    $0x8,%rsp
  40319a:	c3                   	retq   
  40319b:	90                   	nop
  40319c:	48 8b 47 10          	mov    0x10(%rdi),%rax
  4031a0:	e8 1b fc ff ff       	callq  402dc0 <camlCamlinternalFormatBasics__concat_fmt_1337>
  4031a5:	48 89 c3             	mov    %rax,%rbx
  4031a8:	49 83 ef 20          	sub    $0x20,%r15
  4031ac:	48 8d 05 ed 9c 22 00 	lea    0x229ced(%rip),%rax        # 62cea0 <caml_young_limit>
  4031b3:	4c 3b 38             	cmp    (%rax),%r15
  4031b6:	0f 82 e0 02 00 00    	jb     40349c <camlCamlinternalFormatBasics__concat_fmt_1337+0x6dc>
  4031bc:	49 8d 47 08          	lea    0x8(%r15),%rax
  4031c0:	48 c7 40 f8 0e 0c 00 	movq   $0xc0e,-0x8(%rax)
  4031c7:	00 
  4031c8:	48 8b 34 24          	mov    (%rsp),%rsi
  4031cc:	48 8b 3e             	mov    (%rsi),%rdi
  4031cf:	48 89 38             	mov    %rdi,(%rax)
  4031d2:	48 8b 7e 08          	mov    0x8(%rsi),%rdi
  4031d6:	48 89 78 08          	mov    %rdi,0x8(%rax)
  4031da:	48 89 58 10          	mov    %rbx,0x10(%rax)
  4031de:	48 83 c4 08          	add    $0x8,%rsp
  4031e2:	c3                   	retq   
  4031e3:	90                   	nop
  4031e4:	48 8b 07             	mov    (%rdi),%rax
  4031e7:	e8 d4 fb ff ff       	callq  402dc0 <camlCamlinternalFormatBasics__concat_fmt_1337>
  4031ec:	48 89 c3             	mov    %rax,%rbx
  4031ef:	49 83 ef 10          	sub    $0x10,%r15
  4031f3:	48 8d 05 a6 9c 22 00 	lea    0x229ca6(%rip),%rax        # 62cea0 <caml_young_limit>
  4031fa:	4c 3b 38             	cmp    (%rax),%r15
  4031fd:	0f 82 8f 02 00 00    	jb     403492 <camlCamlinternalFormatBasics__concat_fmt_1337+0x6d2>
  403203:	49 8d 47 08          	lea    0x8(%r15),%rax
  403207:	48 c7 40 f8 0f 04 00 	movq   $0x40f,-0x8(%rax)
  40320e:	00 
  40320f:	48 89 18             	mov    %rbx,(%rax)
  403212:	48 83 c4 08          	add    $0x8,%rsp
  403216:	c3                   	retq   
  403217:	90                   	nop
  403218:	48 8b 07             	mov    (%rdi),%rax
  40321b:	e8 a0 fb ff ff       	callq  402dc0 <camlCamlinternalFormatBasics__concat_fmt_1337>
  403220:	48 89 c3             	mov    %rax,%rbx
  403223:	49 83 ef 10          	sub    $0x10,%r15
  403227:	48 8d 05 72 9c 22 00 	lea    0x229c72(%rip),%rax        # 62cea0 <caml_young_limit>
  40322e:	4c 3b 38             	cmp    (%rax),%r15
  403231:	0f 82 51 02 00 00    	jb     403488 <camlCamlinternalFormatBasics__concat_fmt_1337+0x6c8>
  403237:	49 8d 47 08          	lea    0x8(%r15),%rax
  40323b:	48 c7 40 f8 10 04 00 	movq   $0x410,-0x8(%rax)
  403242:	00 
  403243:	48 89 18             	mov    %rbx,(%rax)
  403246:	48 83 c4 08          	add    $0x8,%rsp
  40324a:	c3                   	retq   
  40324b:	90                   	nop
  40324c:	48 8b 47 08          	mov    0x8(%rdi),%rax
  403250:	e8 6b fb ff ff       	callq  402dc0 <camlCamlinternalFormatBasics__concat_fmt_1337>
  403255:	48 89 c3             	mov    %rax,%rbx
  403258:	49 83 ef 18          	sub    $0x18,%r15
  40325c:	48 8d 05 3d 9c 22 00 	lea    0x229c3d(%rip),%rax        # 62cea0 <caml_young_limit>
  403263:	4c 3b 38             	cmp    (%rax),%r15
  403266:	0f 82 12 02 00 00    	jb     40347e <camlCamlinternalFormatBasics__concat_fmt_1337+0x6be>
  40326c:	49 8d 47 08          	lea    0x8(%r15),%rax
  403270:	48 c7 40 f8 11 08 00 	movq   $0x811,-0x8(%rax)
  403277:	00 
  403278:	48 8b 3c 24          	mov    (%rsp),%rdi
  40327c:	48 8b 3f             	mov    (%rdi),%rdi
  40327f:	48 89 38             	mov    %rdi,(%rax)
  403282:	48 89 58 08          	mov    %rbx,0x8(%rax)
  403286:	48 83 c4 08          	add    $0x8,%rsp
  40328a:	c3                   	retq   
  40328b:	90                   	nop
  40328c:	48 8b 47 08          	mov    0x8(%rdi),%rax
  403290:	e8 2b fb ff ff       	callq  402dc0 <camlCamlinternalFormatBasics__concat_fmt_1337>
  403295:	48 89 c3             	mov    %rax,%rbx
  403298:	49 83 ef 18          	sub    $0x18,%r15
  40329c:	48 8d 05 fd 9b 22 00 	lea    0x229bfd(%rip),%rax        # 62cea0 <caml_young_limit>
  4032a3:	4c 3b 38             	cmp    (%rax),%r15
  4032a6:	0f 82 c8 01 00 00    	jb     403474 <camlCamlinternalFormatBasics__concat_fmt_1337+0x6b4>
  4032ac:	49 8d 47 08          	lea    0x8(%r15),%rax
  4032b0:	48 c7 40 f8 12 08 00 	movq   $0x812,-0x8(%rax)
  4032b7:	00 
  4032b8:	48 8b 3c 24          	mov    (%rsp),%rdi
  4032bc:	48 8b 3f             	mov    (%rdi),%rdi
  4032bf:	48 89 38             	mov    %rdi,(%rax)
  4032c2:	48 89 58 08          	mov    %rbx,0x8(%rax)
  4032c6:	48 83 c4 08          	add    $0x8,%rsp
  4032ca:	c3                   	retq   
  4032cb:	90                   	nop
  4032cc:	48 8b 07             	mov    (%rdi),%rax
  4032cf:	e8 ec fa ff ff       	callq  402dc0 <camlCamlinternalFormatBasics__concat_fmt_1337>
  4032d4:	48 89 c3             	mov    %rax,%rbx
  4032d7:	49 83 ef 10          	sub    $0x10,%r15
  4032db:	48 8d 05 be 9b 22 00 	lea    0x229bbe(%rip),%rax        # 62cea0 <caml_young_limit>
  4032e2:	4c 3b 38             	cmp    (%rax),%r15
  4032e5:	0f 82 7f 01 00 00    	jb     40346a <camlCamlinternalFormatBasics__concat_fmt_1337+0x6aa>
  4032eb:	49 8d 47 08          	lea    0x8(%r15),%rax
  4032ef:	48 c7 40 f8 13 04 00 	movq   $0x413,-0x8(%rax)
  4032f6:	00 
  4032f7:	48 89 18             	mov    %rbx,(%rax)
  4032fa:	48 83 c4 08          	add    $0x8,%rsp
  4032fe:	c3                   	retq   
  4032ff:	90                   	nop
  403300:	48 8b 47 10          	mov    0x10(%rdi),%rax
  403304:	e8 b7 fa ff ff       	callq  402dc0 <camlCamlinternalFormatBasics__concat_fmt_1337>
  403309:	48 89 c3             	mov    %rax,%rbx
  40330c:	49 83 ef 20          	sub    $0x20,%r15
  403310:	48 8d 05 89 9b 22 00 	lea    0x229b89(%rip),%rax        # 62cea0 <caml_young_limit>
  403317:	4c 3b 38             	cmp    (%rax),%r15
  40331a:	0f 82 40 01 00 00    	jb     403460 <camlCamlinternalFormatBasics__concat_fmt_1337+0x6a0>
  403320:	49 8d 47 08          	lea    0x8(%r15),%rax
  403324:	48 c7 40 f8 14 0c 00 	movq   $0xc14,-0x8(%rax)
  40332b:	00 
  40332c:	48 8b 34 24          	mov    (%rsp),%rsi
  403330:	48 8b 3e             	mov    (%rsi),%rdi
  403333:	48 89 38             	mov    %rdi,(%rax)
  403336:	48 8b 7e 08          	mov    0x8(%rsi),%rdi
  40333a:	48 89 78 08          	mov    %rdi,0x8(%rax)
  40333e:	48 89 58 10          	mov    %rbx,0x10(%rax)
  403342:	48 83 c4 08          	add    $0x8,%rsp
  403346:	c3                   	retq   
  403347:	90                   	nop
  403348:	48 8b 47 08          	mov    0x8(%rdi),%rax
  40334c:	e8 6f fa ff ff       	callq  402dc0 <camlCamlinternalFormatBasics__concat_fmt_1337>
  403351:	48 89 c3             	mov    %rax,%rbx
  403354:	49 83 ef 18          	sub    $0x18,%r15
  403358:	48 8d 05 41 9b 22 00 	lea    0x229b41(%rip),%rax        # 62cea0 <caml_young_limit>
  40335f:	4c 3b 38             	cmp    (%rax),%r15
  403362:	0f 82 ee 00 00 00    	jb     403456 <camlCamlinternalFormatBasics__concat_fmt_1337+0x696>
  403368:	49 8d 47 08          	lea    0x8(%r15),%rax
  40336c:	48 c7 40 f8 15 08 00 	movq   $0x815,-0x8(%rax)
  403373:	00 
  403374:	48 8b 3c 24          	mov    (%rsp),%rdi
  403378:	48 8b 3f             	mov    (%rdi),%rdi
  40337b:	48 89 38             	mov    %rdi,(%rax)
  40337e:	48 89 58 08          	mov    %rbx,0x8(%rax)
  403382:	48 83 c4 08          	add    $0x8,%rsp
  403386:	c3                   	retq   
  403387:	90                   	nop
  403388:	48 8b 07             	mov    (%rdi),%rax
  40338b:	e8 30 fa ff ff       	callq  402dc0 <camlCamlinternalFormatBasics__concat_fmt_1337>
  403390:	48 89 c3             	mov    %rax,%rbx
  403393:	49 83 ef 10          	sub    $0x10,%r15
  403397:	48 8d 05 02 9b 22 00 	lea    0x229b02(%rip),%rax        # 62cea0 <caml_young_limit>
  40339e:	4c 3b 38             	cmp    (%rax),%r15
  4033a1:	0f 82 a5 00 00 00    	jb     40344c <camlCamlinternalFormatBasics__concat_fmt_1337+0x68c>
  4033a7:	49 8d 47 08          	lea    0x8(%r15),%rax
  4033ab:	48 c7 40 f8 16 04 00 	movq   $0x416,-0x8(%rax)
  4033b2:	00 
  4033b3:	48 89 18             	mov    %rbx,(%rax)
  4033b6:	48 83 c4 08          	add    $0x8,%rsp
  4033ba:	c3                   	retq   
  4033bb:	90                   	nop
  4033bc:	48 8b 47 08          	mov    0x8(%rdi),%rax
  4033c0:	e8 fb f9 ff ff       	callq  402dc0 <camlCamlinternalFormatBasics__concat_fmt_1337>
  4033c5:	48 89 c3             	mov    %rax,%rbx
  4033c8:	49 83 ef 18          	sub    $0x18,%r15
  4033cc:	48 8d 05 cd 9a 22 00 	lea    0x229acd(%rip),%rax        # 62cea0 <caml_young_limit>
  4033d3:	4c 3b 38             	cmp    (%rax),%r15
  4033d6:	72 6a                	jb     403442 <camlCamlinternalFormatBasics__concat_fmt_1337+0x682>
  4033d8:	49 8d 47 08          	lea    0x8(%r15),%rax
  4033dc:	48 c7 40 f8 17 08 00 	movq   $0x817,-0x8(%rax)
  4033e3:	00 
  4033e4:	48 8b 3c 24          	mov    (%rsp),%rdi
  4033e8:	48 8b 3f             	mov    (%rdi),%rdi
  4033eb:	48 89 38             	mov    %rdi,(%rax)
  4033ee:	48 89 58 08          	mov    %rbx,0x8(%rax)
  4033f2:	48 83 c4 08          	add    $0x8,%rsp
  4033f6:	c3                   	retq   
  4033f7:	90                   	nop
  4033f8:	48 8b 47 10          	mov    0x10(%rdi),%rax
  4033fc:	e8 bf f9 ff ff       	callq  402dc0 <camlCamlinternalFormatBasics__concat_fmt_1337>
  403401:	48 89 c3             	mov    %rax,%rbx
  403404:	49 83 ef 20          	sub    $0x20,%r15
  403408:	48 8d 05 91 9a 22 00 	lea    0x229a91(%rip),%rax        # 62cea0 <caml_young_limit>
  40340f:	4c 3b 38             	cmp    (%rax),%r15
  403412:	72 27                	jb     40343b <camlCamlinternalFormatBasics__concat_fmt_1337+0x67b>
  403414:	49 8d 47 08          	lea    0x8(%r15),%rax
  403418:	48 c7 40 f8 18 0c 00 	movq   $0xc18,-0x8(%rax)
  40341f:	00 
  403420:	48 8b 34 24          	mov    (%rsp),%rsi
  403424:	48 8b 3e             	mov    (%rsi),%rdi
  403427:	48 89 38             	mov    %rdi,(%rax)
  40342a:	48 8b 7e 08          	mov    0x8(%rsi),%rdi
  40342e:	48 89 78 08          	mov    %rdi,0x8(%rax)
  403432:	48 89 58 10          	mov    %rbx,0x10(%rax)
  403436:	48 83 c4 08          	add    $0x8,%rsp
  40343a:	c3                   	retq   
  40343b:	e8 e0 66 01 00       	callq  419b20 <caml_call_gc>
  403440:	eb c2                	jmp    403404 <camlCamlinternalFormatBasics__concat_fmt_1337+0x644>
  403442:	e8 d9 66 01 00       	callq  419b20 <caml_call_gc>
  403447:	e9 7c ff ff ff       	jmpq   4033c8 <camlCamlinternalFormatBasics__concat_fmt_1337+0x608>
  40344c:	e8 cf 66 01 00       	callq  419b20 <caml_call_gc>
  403451:	e9 3d ff ff ff       	jmpq   403393 <camlCamlinternalFormatBasics__concat_fmt_1337+0x5d3>
  403456:	e8 c5 66 01 00       	callq  419b20 <caml_call_gc>
  40345b:	e9 f4 fe ff ff       	jmpq   403354 <camlCamlinternalFormatBasics__concat_fmt_1337+0x594>
  403460:	e8 bb 66 01 00       	callq  419b20 <caml_call_gc>
  403465:	e9 a2 fe ff ff       	jmpq   40330c <camlCamlinternalFormatBasics__concat_fmt_1337+0x54c>
  40346a:	e8 b1 66 01 00       	callq  419b20 <caml_call_gc>
  40346f:	e9 63 fe ff ff       	jmpq   4032d7 <camlCamlinternalFormatBasics__concat_fmt_1337+0x517>
  403474:	e8 a7 66 01 00       	callq  419b20 <caml_call_gc>
  403479:	e9 1a fe ff ff       	jmpq   403298 <camlCamlinternalFormatBasics__concat_fmt_1337+0x4d8>
  40347e:	e8 9d 66 01 00       	callq  419b20 <caml_call_gc>
  403483:	e9 d0 fd ff ff       	jmpq   403258 <camlCamlinternalFormatBasics__concat_fmt_1337+0x498>
  403488:	e8 93 66 01 00       	callq  419b20 <caml_call_gc>
  40348d:	e9 91 fd ff ff       	jmpq   403223 <camlCamlinternalFormatBasics__concat_fmt_1337+0x463>
  403492:	e8 89 66 01 00       	callq  419b20 <caml_call_gc>
  403497:	e9 53 fd ff ff       	jmpq   4031ef <camlCamlinternalFormatBasics__concat_fmt_1337+0x42f>
  40349c:	e8 7f 66 01 00       	callq  419b20 <caml_call_gc>
  4034a1:	e9 02 fd ff ff       	jmpq   4031a8 <camlCamlinternalFormatBasics__concat_fmt_1337+0x3e8>
  4034a6:	e8 75 66 01 00       	callq  419b20 <caml_call_gc>
  4034ab:	e9 b0 fc ff ff       	jmpq   403160 <camlCamlinternalFormatBasics__concat_fmt_1337+0x3a0>
  4034b0:	e8 6b 66 01 00       	callq  419b20 <caml_call_gc>
  4034b5:	e9 66 fc ff ff       	jmpq   403120 <camlCamlinternalFormatBasics__concat_fmt_1337+0x360>
  4034ba:	e8 61 66 01 00       	callq  419b20 <caml_call_gc>
  4034bf:	e9 1c fc ff ff       	jmpq   4030e0 <camlCamlinternalFormatBasics__concat_fmt_1337+0x320>
  4034c4:	e8 57 66 01 00       	callq  419b20 <caml_call_gc>
  4034c9:	e9 dd fb ff ff       	jmpq   4030ab <camlCamlinternalFormatBasics__concat_fmt_1337+0x2eb>
  4034ce:	e8 4d 66 01 00       	callq  419b20 <caml_call_gc>
  4034d3:	e9 9f fb ff ff       	jmpq   403077 <camlCamlinternalFormatBasics__concat_fmt_1337+0x2b7>
  4034d8:	e8 43 66 01 00       	callq  419b20 <caml_call_gc>
  4034dd:	e9 46 fb ff ff       	jmpq   403028 <camlCamlinternalFormatBasics__concat_fmt_1337+0x268>
  4034e2:	e8 39 66 01 00       	callq  419b20 <caml_call_gc>
  4034e7:	e9 ec fa ff ff       	jmpq   402fd8 <camlCamlinternalFormatBasics__concat_fmt_1337+0x218>
  4034ec:	e8 2f 66 01 00       	callq  419b20 <caml_call_gc>
  4034f1:	e9 92 fa ff ff       	jmpq   402f88 <camlCamlinternalFormatBasics__concat_fmt_1337+0x1c8>
  4034f6:	e8 25 66 01 00       	callq  419b20 <caml_call_gc>
  4034fb:	e9 38 fa ff ff       	jmpq   402f38 <camlCamlinternalFormatBasics__concat_fmt_1337+0x178>
  403500:	e8 1b 66 01 00       	callq  419b20 <caml_call_gc>
  403505:	e9 de f9 ff ff       	jmpq   402ee8 <camlCamlinternalFormatBasics__concat_fmt_1337+0x128>
  40350a:	e8 11 66 01 00       	callq  419b20 <caml_call_gc>
  40350f:	e9 94 f9 ff ff       	jmpq   402ea8 <camlCamlinternalFormatBasics__concat_fmt_1337+0xe8>
  403514:	e8 07 66 01 00       	callq  419b20 <caml_call_gc>
  403519:	e9 4a f9 ff ff       	jmpq   402e68 <camlCamlinternalFormatBasics__concat_fmt_1337+0xa8>
  40351e:	e8 fd 65 01 00       	callq  419b20 <caml_call_gc>
  403523:	e9 0b f9 ff ff       	jmpq   402e33 <camlCamlinternalFormatBasics__concat_fmt_1337+0x73>
  403528:	e8 f3 65 01 00       	callq  419b20 <caml_call_gc>
  40352d:	e9 cd f8 ff ff       	jmpq   402dff <camlCamlinternalFormatBasics__concat_fmt_1337+0x3f>
  403532:	0f 1f 40 00          	nopl   0x0(%rax)
  403536:	66 2e 0f 1f 84 00 00 	nopw   %cs:0x0(%rax,%rax,1)
  40353d:	00 00 00 

0000000000403540 <camlCamlinternalFormatBasics__entry>:
  403540:	48 8d 05 f1 64 22 00 	lea    0x2264f1(%rip),%rax        # 629a38 <camlCamlinternalFormatBasics__3>
  403547:	48 8d 1d 7a 64 22 00 	lea    0x22647a(%rip),%rbx        # 6299c8 <camlCamlinternalFormatBasics>
  40354e:	48 89 43 08          	mov    %rax,0x8(%rbx)
  403552:	48 8d 05 bf 64 22 00 	lea    0x2264bf(%rip),%rax        # 629a18 <camlCamlinternalFormatBasics__2>
  403559:	48 89 03             	mov    %rax,(%rbx)
  40355c:	48 8d 05 95 64 22 00 	lea    0x226495(%rip),%rax        # 6299f8 <camlCamlinternalFormatBasics__1>
  403563:	48 89 43 10          	mov    %rax,0x10(%rbx)
  403567:	48 c7 c0 01 00 00 00 	mov    $0x1,%rax
  40356e:	c3                   	retq   

000000000040356f <camlCamlinternalFormatBasics__code_end>:
  40356f:	90                   	nop

0000000000403570 <camlPervasives__fun_1622>:
  403570:	48 83 ec 08          	sub    $0x8,%rsp
  403574:	48 89 c7             	mov    %rax,%rdi
  403577:	48 89 de             	mov    %rbx,%rsi
  40357a:	48 8d 05 ef a4 00 00 	lea    0xa4ef(%rip),%rax        # 40da70 <caml_ml_set_binary_mode>
  403581:	e8 be 67 01 00       	callq  419d44 <caml_c_call>
  403586:	4c 8d 1d 1b 99 22 00 	lea    0x22991b(%rip),%r11        # 62cea8 <caml_young_ptr>
  40358d:	4d 8b 3b             	mov    (%r11),%r15
  403590:	48 83 c4 08          	add    $0x8,%rsp
  403594:	c3                   	retq   
  403595:	90                   	nop
  403596:	66 2e 0f 1f 84 00 00 	nopw   %cs:0x0(%rax,%rax,1)
  40359d:	00 00 00 

00000000004035a0 <camlPervasives__fun_1624>:
  4035a0:	48 83 ec 08          	sub    $0x8,%rsp
  4035a4:	48 89 c7             	mov    %rax,%rdi
  4035a7:	48 8d 05 d2 a3 00 00 	lea    0xa3d2(%rip),%rax        # 40d980 <caml_ml_close_channel>
  4035ae:	e8 91 67 01 00       	callq  419d44 <caml_c_call>
  4035b3:	4c 8d 1d ee 98 22 00 	lea    0x2298ee(%rip),%r11        # 62cea8 <caml_young_ptr>
  4035ba:	4d 8b 3b             	mov    (%r11),%r15
  4035bd:	48 83 c4 08          	add    $0x8,%rsp
  4035c1:	c3                   	retq   
  4035c2:	0f 1f 40 00          	nopl   0x0(%rax)
  4035c6:	66 2e 0f 1f 84 00 00 	nopw   %cs:0x0(%rax,%rax,1)
  4035cd:	00 00 00 

00000000004035d0 <camlPervasives__fun_1626>:
  4035d0:	48 83 ec 08          	sub    $0x8,%rsp
  4035d4:	48 89 c7             	mov    %rax,%rdi
  4035d7:	48 8d 05 32 a4 00 00 	lea    0xa432(%rip),%rax        # 40da10 <caml_ml_channel_size>
  4035de:	e8 61 67 01 00       	callq  419d44 <caml_c_call>
  4035e3:	4c 8d 1d be 98 22 00 	lea    0x2298be(%rip),%r11        # 62cea8 <caml_young_ptr>
  4035ea:	4d 8b 3b             	mov    (%r11),%r15
  4035ed:	48 83 c4 08          	add    $0x8,%rsp
  4035f1:	c3                   	retq   
  4035f2:	0f 1f 40 00          	nopl   0x0(%rax)
  4035f6:	66 2e 0f 1f 84 00 00 	nopw   %cs:0x0(%rax,%rax,1)
  4035fd:	00 00 00 

0000000000403600 <camlPervasives__fun_1628>:
  403600:	48 83 ec 08          	sub    $0x8,%rsp
  403604:	48 89 c7             	mov    %rax,%rdi
  403607:	48 8d 05 12 b0 00 00 	lea    0xb012(%rip),%rax        # 40e620 <caml_ml_pos_in>
  40360e:	e8 31 67 01 00       	callq  419d44 <caml_c_call>
  403613:	4c 8d 1d 8e 98 22 00 	lea    0x22988e(%rip),%r11        # 62cea8 <caml_young_ptr>
  40361a:	4d 8b 3b             	mov    (%r11),%r15
  40361d:	48 83 c4 08          	add    $0x8,%rsp
  403621:	c3                   	retq   
  403622:	0f 1f 40 00          	nopl   0x0(%rax)
  403626:	66 2e 0f 1f 84 00 00 	nopw   %cs:0x0(%rax,%rax,1)
  40362d:	00 00 00 

0000000000403630 <camlPervasives__fun_1630>:
  403630:	48 83 ec 08          	sub    $0x8,%rsp
  403634:	48 89 c7             	mov    %rax,%rdi
  403637:	48 89 de             	mov    %rbx,%rsi
  40363a:	48 8d 05 5f ae 00 00 	lea    0xae5f(%rip),%rax        # 40e4a0 <caml_ml_seek_in>
  403641:	e8 fe 66 01 00       	callq  419d44 <caml_c_call>
  403646:	4c 8d 1d 5b 98 22 00 	lea    0x22985b(%rip),%r11        # 62cea8 <caml_young_ptr>
  40364d:	4d 8b 3b             	mov    (%r11),%r15
  403650:	48 83 c4 08          	add    $0x8,%rsp
  403654:	c3                   	retq   
  403655:	90                   	nop
  403656:	66 2e 0f 1f 84 00 00 	nopw   %cs:0x0(%rax,%rax,1)
  40365d:	00 00 00 

0000000000403660 <camlPervasives__fun_1632>:
  403660:	48 83 ec 08          	sub    $0x8,%rsp
  403664:	48 89 c7             	mov    %rax,%rdi
  403667:	48 8d 05 52 db 00 00 	lea    0xdb52(%rip),%rax        # 4111c0 <caml_input_value>
  40366e:	e8 d1 66 01 00       	callq  419d44 <caml_c_call>
  403673:	4c 8d 1d 2e 98 22 00 	lea    0x22982e(%rip),%r11        # 62cea8 <caml_young_ptr>
  40367a:	4d 8b 3b             	mov    (%r11),%r15
  40367d:	48 83 c4 08          	add    $0x8,%rsp
  403681:	c3                   	retq   
  403682:	0f 1f 40 00          	nopl   0x0(%rax)
  403686:	66 2e 0f 1f 84 00 00 	nopw   %cs:0x0(%rax,%rax,1)
  40368d:	00 00 00 

0000000000403690 <camlPervasives__fun_1634>:
  403690:	48 83 ec 08          	sub    $0x8,%rsp
  403694:	48 89 c7             	mov    %rax,%rdi
  403697:	48 8d 05 d2 ab 00 00 	lea    0xabd2(%rip),%rax        # 40e270 <caml_ml_input_int>
  40369e:	e8 a1 66 01 00       	callq  419d44 <caml_c_call>
  4036a3:	4c 8d 1d fe 97 22 00 	lea    0x2297fe(%rip),%r11        # 62cea8 <caml_young_ptr>
  4036aa:	4d 8b 3b             	mov    (%r11),%r15
  4036ad:	48 83 c4 08          	add    $0x8,%rsp
  4036b1:	c3                   	retq   
  4036b2:	0f 1f 40 00          	nopl   0x0(%rax)
  4036b6:	66 2e 0f 1f 84 00 00 	nopw   %cs:0x0(%rax,%rax,1)
  4036bd:	00 00 00 

00000000004036c0 <camlPervasives__fun_1636>:
  4036c0:	48 83 ec 08          	sub    $0x8,%rsp
  4036c4:	48 89 c7             	mov    %rax,%rdi
  4036c7:	48 8d 05 d2 aa 00 00 	lea    0xaad2(%rip),%rax        # 40e1a0 <caml_ml_input_char>
  4036ce:	e8 71 66 01 00       	callq  419d44 <caml_c_call>
  4036d3:	4c 8d 1d ce 97 22 00 	lea    0x2297ce(%rip),%r11        # 62cea8 <caml_young_ptr>
  4036da:	4d 8b 3b             	mov    (%r11),%r15
  4036dd:	48 83 c4 08          	add    $0x8,%rsp
  4036e1:	c3                   	retq   
  4036e2:	0f 1f 40 00          	nopl   0x0(%rax)
  4036e6:	66 2e 0f 1f 84 00 00 	nopw   %cs:0x0(%rax,%rax,1)
  4036ed:	00 00 00 

00000000004036f0 <camlPervasives__fun_1638>:
  4036f0:	48 83 ec 08          	sub    $0x8,%rsp
  4036f4:	48 89 c7             	mov    %rax,%rdi
  4036f7:	48 8d 05 a2 aa 00 00 	lea    0xaaa2(%rip),%rax        # 40e1a0 <caml_ml_input_char>
  4036fe:	e8 41 66 01 00       	callq  419d44 <caml_c_call>
  403703:	4c 8d 1d 9e 97 22 00 	lea    0x22979e(%rip),%r11        # 62cea8 <caml_young_ptr>
  40370a:	4d 8b 3b             	mov    (%r11),%r15
  40370d:	48 83 c4 08          	add    $0x8,%rsp
  403711:	c3                   	retq   
  403712:	0f 1f 40 00          	nopl   0x0(%rax)
  403716:	66 2e 0f 1f 84 00 00 	nopw   %cs:0x0(%rax,%rax,1)
  40371d:	00 00 00 

0000000000403720 <camlPervasives__fun_1640>:
  403720:	48 83 ec 08          	sub    $0x8,%rsp
  403724:	48 89 c7             	mov    %rax,%rdi
  403727:	48 89 de             	mov    %rbx,%rsi
  40372a:	48 8d 05 3f a3 00 00 	lea    0xa33f(%rip),%rax        # 40da70 <caml_ml_set_binary_mode>
  403731:	e8 0e 66 01 00       	callq  419d44 <caml_c_call>
  403736:	4c 8d 1d 6b 97 22 00 	lea    0x22976b(%rip),%r11        # 62cea8 <caml_young_ptr>
  40373d:	4d 8b 3b             	mov    (%r11),%r15
  403740:	48 83 c4 08          	add    $0x8,%rsp
  403744:	c3                   	retq   
  403745:	90                   	nop
  403746:	66 2e 0f 1f 84 00 00 	nopw   %cs:0x0(%rax,%rax,1)
  40374d:	00 00 00 

0000000000403750 <camlPervasives__fun_1642>:
  403750:	48 83 ec 08          	sub    $0x8,%rsp
  403754:	48 89 c7             	mov    %rax,%rdi
  403757:	48 8d 05 b2 a2 00 00 	lea    0xa2b2(%rip),%rax        # 40da10 <caml_ml_channel_size>
  40375e:	e8 e1 65 01 00       	callq  419d44 <caml_c_call>
  403763:	4c 8d 1d 3e 97 22 00 	lea    0x22973e(%rip),%r11        # 62cea8 <caml_young_ptr>
  40376a:	4d 8b 3b             	mov    (%r11),%r15
  40376d:	48 83 c4 08          	add    $0x8,%rsp
  403771:	c3                   	retq   
  403772:	0f 1f 40 00          	nopl   0x0(%rax)
  403776:	66 2e 0f 1f 84 00 00 	nopw   %cs:0x0(%rax,%rax,1)
  40377d:	00 00 00 

0000000000403780 <camlPervasives__fun_1644>:
  403780:	48 83 ec 08          	sub    $0x8,%rsp
  403784:	48 89 c7             	mov    %rax,%rdi
  403787:	48 8d 05 b2 a9 00 00 	lea    0xa9b2(%rip),%rax        # 40e140 <caml_ml_pos_out>
  40378e:	e8 b1 65 01 00       	callq  419d44 <caml_c_call>
  403793:	4c 8d 1d 0e 97 22 00 	lea    0x22970e(%rip),%r11        # 62cea8 <caml_young_ptr>
  40379a:	4d 8b 3b             	mov    (%r11),%r15
  40379d:	48 83 c4 08          	add    $0x8,%rsp
  4037a1:	c3                   	retq   
  4037a2:	0f 1f 40 00          	nopl   0x0(%rax)
  4037a6:	66 2e 0f 1f 84 00 00 	nopw   %cs:0x0(%rax,%rax,1)
  4037ad:	00 00 00 

00000000004037b0 <camlPervasives__fun_1646>:
  4037b0:	48 83 ec 08          	sub    $0x8,%rsp
  4037b4:	48 89 c7             	mov    %rax,%rdi
  4037b7:	48 89 de             	mov    %rbx,%rsi
  4037ba:	48 8d 05 ff a7 00 00 	lea    0xa7ff(%rip),%rax        # 40dfc0 <caml_ml_seek_out>
  4037c1:	e8 7e 65 01 00       	callq  419d44 <caml_c_call>
  4037c6:	4c 8d 1d db 96 22 00 	lea    0x2296db(%rip),%r11        # 62cea8 <caml_young_ptr>
  4037cd:	4d 8b 3b             	mov    (%r11),%r15
  4037d0:	48 83 c4 08          	add    $0x8,%rsp
  4037d4:	c3                   	retq   
  4037d5:	90                   	nop
  4037d6:	66 2e 0f 1f 84 00 00 	nopw   %cs:0x0(%rax,%rax,1)
  4037dd:	00 00 00 

00000000004037e0 <camlPervasives__fun_1648>:
  4037e0:	48 83 ec 08          	sub    $0x8,%rsp
  4037e4:	48 89 c7             	mov    %rax,%rdi
  4037e7:	48 89 de             	mov    %rbx,%rsi
  4037ea:	48 8d 05 0f a5 00 00 	lea    0xa50f(%rip),%rax        # 40dd00 <caml_ml_output_int>
  4037f1:	e8 4e 65 01 00       	callq  419d44 <caml_c_call>
  4037f6:	4c 8d 1d ab 96 22 00 	lea    0x2296ab(%rip),%r11        # 62cea8 <caml_young_ptr>
  4037fd:	4d 8b 3b             	mov    (%r11),%r15
  403800:	48 83 c4 08          	add    $0x8,%rsp
  403804:	c3                   	retq   
  403805:	90                   	nop
  403806:	66 2e 0f 1f 84 00 00 	nopw   %cs:0x0(%rax,%rax,1)
  40380d:	00 00 00 

0000000000403810 <camlPervasives__fun_1650>:
  403810:	48 83 ec 08          	sub    $0x8,%rsp
  403814:	48 89 c7             	mov    %rax,%rdi
  403817:	48 89 de             	mov    %rbx,%rsi
  40381a:	48 8d 05 ff a3 00 00 	lea    0xa3ff(%rip),%rax        # 40dc20 <caml_ml_output_char>
  403821:	e8 1e 65 01 00       	callq  419d44 <caml_c_call>
  403826:	4c 8d 1d 7b 96 22 00 	lea    0x22967b(%rip),%r11        # 62cea8 <caml_young_ptr>
  40382d:	4d 8b 3b             	mov    (%r11),%r15
  403830:	48 83 c4 08          	add    $0x8,%rsp
  403834:	c3                   	retq   
  403835:	90                   	nop
  403836:	66 2e 0f 1f 84 00 00 	nopw   %cs:0x0(%rax,%rax,1)
  40383d:	00 00 00 

0000000000403840 <camlPervasives__fun_1652>:
  403840:	48 83 ec 08          	sub    $0x8,%rsp
  403844:	48 89 c7             	mov    %rax,%rdi
  403847:	48 89 de             	mov    %rbx,%rsi
  40384a:	48 8d 05 cf a3 00 00 	lea    0xa3cf(%rip),%rax        # 40dc20 <caml_ml_output_char>
  403851:	e8 ee 64 01 00       	callq  419d44 <caml_c_call>
  403856:	4c 8d 1d 4b 96 22 00 	lea    0x22964b(%rip),%r11        # 62cea8 <caml_young_ptr>
  40385d:	4d 8b 3b             	mov    (%r11),%r15
  403860:	48 83 c4 08          	add    $0x8,%rsp
  403864:	c3                   	retq   
  403865:	90                   	nop
  403866:	66 2e 0f 1f 84 00 00 	nopw   %cs:0x0(%rax,%rax,1)
  40386d:	00 00 00 

0000000000403870 <camlPervasives__fun_1654>:
  403870:	48 83 ec 08          	sub    $0x8,%rsp
  403874:	48 89 c7             	mov    %rax,%rdi
  403877:	48 8d 05 e2 a2 00 00 	lea    0xa2e2(%rip),%rax        # 40db60 <caml_ml_flush>
  40387e:	e8 c1 64 01 00       	callq  419d44 <caml_c_call>
  403883:	4c 8d 1d 1e 96 22 00 	lea    0x22961e(%rip),%r11        # 62cea8 <caml_young_ptr>
  40388a:	4d 8b 3b             	mov    (%r11),%r15
  40388d:	48 83 c4 08          	add    $0x8,%rsp
  403891:	c3                   	retq   
  403892:	0f 1f 40 00          	nopl   0x0(%rax)
  403896:	66 2e 0f 1f 84 00 00 	nopw   %cs:0x0(%rax,%rax,1)
  40389d:	00 00 00 

00000000004038a0 <camlPervasives__failwith_1005>:
  4038a0:	48 83 ec 08          	sub    $0x8,%rsp
  4038a4:	48 89 c3             	mov    %rax,%rbx
  4038a7:	48 8d 05 aa 99 23 00 	lea    0x2399aa(%rip),%rax        # 63d258 <caml_backtrace_pos>
  4038ae:	48 31 ff             	xor    %rdi,%rdi
  4038b1:	89 38                	mov    %edi,(%rax)
  4038b3:	49 83 ef 18          	sub    $0x18,%r15
  4038b7:	48 8d 05 e2 95 22 00 	lea    0x2295e2(%rip),%rax        # 62cea0 <caml_young_limit>
  4038be:	4c 3b 38             	cmp    (%rax),%r15
  4038c1:	72 1f                	jb     4038e2 <camlPervasives__failwith_1005+0x42>
  4038c3:	49 8d 47 08          	lea    0x8(%r15),%rax
  4038c7:	48 c7 40 f8 00 08 00 	movq   $0x800,-0x8(%rax)
  4038ce:	00 
  4038cf:	48 8d 3d 82 5a 22 00 	lea    0x225a82(%rip),%rdi        # 629358 <caml_exn_Failure>
  4038d6:	48 89 38             	mov    %rdi,(%rax)
  4038d9:	48 89 58 08          	mov    %rbx,0x8(%rax)
  4038dd:	e8 22 65 01 00       	callq  419e04 <caml_raise_exn>
  4038e2:	e8 39 62 01 00       	callq  419b20 <caml_call_gc>
  4038e7:	eb ca                	jmp    4038b3 <camlPervasives__failwith_1005+0x13>
  4038e9:	0f 1f 80 00 00 00 00 	nopl   0x0(%rax)

00000000004038f0 <camlPervasives__invalid_arg_1007>:
  4038f0:	48 83 ec 08          	sub    $0x8,%rsp
  4038f4:	48 89 c3             	mov    %rax,%rbx
  4038f7:	48 8d 05 5a 99 23 00 	lea    0x23995a(%rip),%rax        # 63d258 <caml_backtrace_pos>
  4038fe:	48 31 ff             	xor    %rdi,%rdi
  403901:	89 38                	mov    %edi,(%rax)
  403903:	49 83 ef 18          	sub    $0x18,%r15
  403907:	48 8d 05 92 95 22 00 	lea    0x229592(%rip),%rax        # 62cea0 <caml_young_limit>
  40390e:	4c 3b 38             	cmp    (%rax),%r15
  403911:	72 1f                	jb     403932 <camlPervasives__invalid_arg_1007+0x42>
  403913:	49 8d 47 08          	lea    0x8(%r15),%rax
  403917:	48 c7 40 f8 00 08 00 	movq   $0x800,-0x8(%rax)
  40391e:	00 
  40391f:	48 8d 3d 5a 5a 22 00 	lea    0x225a5a(%rip),%rdi        # 629380 <caml_exn_Invalid_argument>
  403926:	48 89 38             	mov    %rdi,(%rax)
  403929:	48 89 58 08          	mov    %rbx,0x8(%rax)
  40392d:	e8 d2 64 01 00       	callq  419e04 <caml_raise_exn>
  403932:	e8 e9 61 01 00       	callq  419b20 <caml_call_gc>
  403937:	eb ca                	jmp    403903 <camlPervasives__invalid_arg_1007+0x13>
  403939:	0f 1f 80 00 00 00 00 	nopl   0x0(%rax)

0000000000403940 <camlPervasives__min_1027>:
  403940:	48 83 ec 18          	sub    $0x18,%rsp
  403944:	48 89 44 24 08       	mov    %rax,0x8(%rsp)
  403949:	48 89 1c 24          	mov    %rbx,(%rsp)
  40394d:	48 89 c7             	mov    %rax,%rdi
  403950:	48 89 de             	mov    %rbx,%rsi
  403953:	48 8d 05 96 65 00 00 	lea    0x6596(%rip),%rax        # 409ef0 <caml_lessequal>
  40395a:	e8 e5 63 01 00       	callq  419d44 <caml_c_call>
  40395f:	4c 8d 1d 42 95 22 00 	lea    0x229542(%rip),%r11        # 62cea8 <caml_young_ptr>
  403966:	4d 8b 3b             	mov    (%r11),%r15
  403969:	48 83 f8 01          	cmp    $0x1,%rax
  40396d:	74 0d                	je     40397c <camlPervasives__min_1027+0x3c>
  40396f:	48 8b 44 24 08       	mov    0x8(%rsp),%rax
  403974:	48 83 c4 18          	add    $0x18,%rsp
  403978:	c3                   	retq   
  403979:	0f 1f 00             	nopl   (%rax)
  40397c:	48 8b 04 24          	mov    (%rsp),%rax
  403980:	48 83 c4 18          	add    $0x18,%rsp
  403984:	c3                   	retq   
  403985:	90                   	nop
  403986:	66 2e 0f 1f 84 00 00 	nopw   %cs:0x0(%rax,%rax,1)
  40398d:	00 00 00 

0000000000403990 <camlPervasives__max_1030>:
  403990:	48 83 ec 18          	sub    $0x18,%rsp
  403994:	48 89 44 24 08       	mov    %rax,0x8(%rsp)
  403999:	48 89 1c 24          	mov    %rbx,(%rsp)
  40399d:	48 89 c7             	mov    %rax,%rdi
  4039a0:	48 89 de             	mov    %rbx,%rsi
  4039a3:	48 8d 05 f6 65 00 00 	lea    0x65f6(%rip),%rax        # 409fa0 <caml_greaterequal>
  4039aa:	e8 95 63 01 00       	callq  419d44 <caml_c_call>
  4039af:	4c 8d 1d f2 94 22 00 	lea    0x2294f2(%rip),%r11        # 62cea8 <caml_young_ptr>
  4039b6:	4d 8b 3b             	mov    (%r11),%r15
  4039b9:	48 83 f8 01          	cmp    $0x1,%rax
  4039bd:	74 0d                	je     4039cc <camlPervasives__max_1030+0x3c>
  4039bf:	48 8b 44 24 08       	mov    0x8(%rsp),%rax
  4039c4:	48 83 c4 18          	add    $0x18,%rsp
  4039c8:	c3                   	retq   
  4039c9:	0f 1f 00             	nopl   (%rax)
  4039cc:	48 8b 04 24          	mov    (%rsp),%rax
  4039d0:	48 83 c4 18          	add    $0x18,%rsp
  4039d4:	c3                   	retq   
  4039d5:	90                   	nop
  4039d6:	66 2e 0f 1f 84 00 00 	nopw   %cs:0x0(%rax,%rax,1)
  4039dd:	00 00 00 

00000000004039e0 <camlPervasives__abs_1049>:
  4039e0:	48 83 f8 01          	cmp    $0x1,%rax
  4039e4:	7c 02                	jl     4039e8 <camlPervasives__abs_1049+0x8>
  4039e6:	c3                   	retq   
  4039e7:	90                   	nop
  4039e8:	48 c7 c3 02 00 00 00 	mov    $0x2,%rbx
  4039ef:	48 29 c3             	sub    %rax,%rbx
  4039f2:	48 89 d8             	mov    %rbx,%rax
  4039f5:	c3                   	retq   
  4039f6:	66 2e 0f 1f 84 00 00 	nopw   %cs:0x0(%rax,%rax,1)
  4039fd:	00 00 00 

0000000000403a00 <camlPervasives__lnot_1054>:
  403a00:	48 83 f0 ff          	xor    $0xffffffffffffffff,%rax
  403a04:	48 83 c8 01          	or     $0x1,%rax
  403a08:	c3                   	retq   
  403a09:	0f 1f 80 00 00 00 00 	nopl   0x0(%rax)

0000000000403a10 <camlPervasives__$5e_1117>:
  403a10:	48 83 ec 28          	sub    $0x28,%rsp
  403a14:	48 89 04 24          	mov    %rax,(%rsp)
  403a18:	48 89 5c 24 10       	mov    %rbx,0x10(%rsp)
  403a1d:	48 8b 78 f8          	mov    -0x8(%rax),%rdi
  403a21:	48 c1 ef 0a          	shr    $0xa,%rdi
  403a25:	48 8d 3c fd ff ff ff 	lea    -0x1(,%rdi,8),%rdi
  403a2c:	ff 
  403a2d:	48 0f b6 04 38       	movzbq (%rax,%rdi,1),%rax
  403a32:	48 29 c7             	sub    %rax,%rdi
  403a35:	48 8d 44 3f 01       	lea    0x1(%rdi,%rdi,1),%rax
  403a3a:	48 89 44 24 08       	mov    %rax,0x8(%rsp)
  403a3f:	48 8b 7b f8          	mov    -0x8(%rbx),%rdi
  403a43:	48 c1 ef 0a          	shr    $0xa,%rdi
  403a47:	48 8d 3c fd ff ff ff 	lea    -0x1(,%rdi,8),%rdi
  403a4e:	ff 
  403a4f:	48 0f b6 1c 3b       	movzbq (%rbx,%rdi,1),%rbx
  403a54:	48 29 df             	sub    %rbx,%rdi
  403a57:	48 8d 5c 3f 01       	lea    0x1(%rdi,%rdi,1),%rbx
  403a5c:	48 89 5c 24 18       	mov    %rbx,0x18(%rsp)
  403a61:	48 8d 7c 18 ff       	lea    -0x1(%rax,%rbx,1),%rdi
  403a66:	48 8d 05 d3 8b 00 00 	lea    0x8bd3(%rip),%rax        # 40c640 <caml_create_bytes>
  403a6d:	e8 d2 62 01 00       	callq  419d44 <caml_c_call>
  403a72:	4c 8d 1d 2f 94 22 00 	lea    0x22942f(%rip),%r11        # 62cea8 <caml_young_ptr>
  403a79:	4d 8b 3b             	mov    (%r11),%r15
  403a7c:	48 89 c3             	mov    %rax,%rbx
  403a7f:	48 c7 c1 01 00 00 00 	mov    $0x1,%rcx
  403a86:	48 c7 c6 01 00 00 00 	mov    $0x1,%rsi
  403a8d:	48 8b 3c 24          	mov    (%rsp),%rdi
  403a91:	48 89 da             	mov    %rbx,%rdx
  403a94:	4c 8b 64 24 08       	mov    0x8(%rsp),%r12
  403a99:	4d 89 e0             	mov    %r12,%r8
  403a9c:	e8 df 90 00 00       	callq  40cb80 <caml_blit_string>
  403aa1:	48 c7 c6 01 00 00 00 	mov    $0x1,%rsi
  403aa8:	48 8b 7c 24 10       	mov    0x10(%rsp),%rdi
  403aad:	48 89 da             	mov    %rbx,%rdx
  403ab0:	4c 89 e1             	mov    %r12,%rcx
  403ab3:	4c 8b 44 24 18       	mov    0x18(%rsp),%r8
  403ab8:	e8 c3 90 00 00       	callq  40cb80 <caml_blit_string>
  403abd:	48 89 d8             	mov    %rbx,%rax
  403ac0:	48 83 c4 28          	add    $0x28,%rsp
  403ac4:	c3                   	retq   
  403ac5:	90                   	nop
  403ac6:	66 2e 0f 1f 84 00 00 	nopw   %cs:0x0(%rax,%rax,1)
  403acd:	00 00 00 

0000000000403ad0 <camlPervasives__char_of_int_1125>:
  403ad0:	48 83 f8 01          	cmp    $0x1,%rax
  403ad4:	7c 0a                	jl     403ae0 <camlPervasives__char_of_int_1125+0x10>
  403ad6:	48 3d ff 01 00 00    	cmp    $0x1ff,%rax
  403adc:	7f 02                	jg     403ae0 <camlPervasives__char_of_int_1125+0x10>
  403ade:	c3                   	retq   
  403adf:	90                   	nop
  403ae0:	48 8d 05 99 6f 22 00 	lea    0x226f99(%rip),%rax        # 62aa80 <camlPervasives__10>
  403ae7:	e9 04 fe ff ff       	jmpq   4038f0 <camlPervasives__invalid_arg_1007>
  403aec:	0f 1f 40 00          	nopl   0x0(%rax)

0000000000403af0 <camlPervasives__string_of_bool_1142>:
  403af0:	48 83 f8 01          	cmp    $0x1,%rax
  403af4:	74 0a                	je     403b00 <camlPervasives__string_of_bool_1142+0x10>
  403af6:	48 8d 05 9b 6f 22 00 	lea    0x226f9b(%rip),%rax        # 62aa98 <camlPervasives__11>
  403afd:	c3                   	retq   
  403afe:	66 90                	xchg   %ax,%ax
  403b00:	48 8d 05 a1 6f 22 00 	lea    0x226fa1(%rip),%rax        # 62aaa8 <camlPervasives__12>
  403b07:	c3                   	retq   
  403b08:	0f 1f 84 00 00 00 00 	nopl   0x0(%rax,%rax,1)
  403b0f:	00 

0000000000403b10 <camlPervasives__bool_of_string_1144>:
  403b10:	48 8b 58 f8          	mov    -0x8(%rax),%rbx
  403b14:	48 c1 eb 0a          	shr    $0xa,%rbx
  403b18:	48 83 fb 02          	cmp    $0x2,%rbx
  403b1c:	7d 32                	jge    403b50 <camlPervasives__bool_of_string_1144+0x40>
  403b1e:	48 8b 00             	mov    (%rax),%rax
  403b21:	48 bb 66 61 6c 73 65 	movabs $0x2000065736c6166,%rbx
  403b28:	00 00 02 
  403b2b:	48 39 d8             	cmp    %rbx,%rax
  403b2e:	75 08                	jne    403b38 <camlPervasives__bool_of_string_1144+0x28>
  403b30:	48 c7 c0 01 00 00 00 	mov    $0x1,%rax
  403b37:	c3                   	retq   
  403b38:	48 bb 74 72 75 65 00 	movabs $0x300000065757274,%rbx
  403b3f:	00 00 03 
  403b42:	48 39 d8             	cmp    %rbx,%rax
  403b45:	75 09                	jne    403b50 <camlPervasives__bool_of_string_1144+0x40>
  403b47:	48 c7 c0 03 00 00 00 	mov    $0x3,%rax
  403b4e:	c3                   	retq   
  403b4f:	90                   	nop
  403b50:	48 8d 05 61 6f 22 00 	lea    0x226f61(%rip),%rax        # 62aab8 <camlPervasives__13>
  403b57:	e9 94 fd ff ff       	jmpq   4038f0 <camlPervasives__invalid_arg_1007>
  403b5c:	0f 1f 40 00          	nopl   0x0(%rax)

0000000000403b60 <camlPervasives__string_of_int_1146>:
  403b60:	48 83 ec 08          	sub    $0x8,%rsp
  403b64:	48 8d 3d 65 6f 22 00 	lea    0x226f65(%rip),%rdi        # 62aad0 <camlPervasives__14>
  403b6b:	48 89 c6             	mov    %rax,%rsi
  403b6e:	48 8d 05 fb 69 00 00 	lea    0x69fb(%rip),%rax        # 40a570 <caml_format_int>
  403b75:	e8 ca 61 01 00       	callq  419d44 <caml_c_call>
  403b7a:	4c 8d 1d 27 93 22 00 	lea    0x229327(%rip),%r11        # 62cea8 <caml_young_ptr>
  403b81:	4d 8b 3b             	mov    (%r11),%r15
  403b84:	48 83 c4 08          	add    $0x8,%rsp
  403b88:	c3                   	retq   
  403b89:	0f 1f 80 00 00 00 00 	nopl   0x0(%rax)

0000000000403b90 <camlPervasives__valid_float_lexem_1150>:
  403b90:	48 83 ec 08          	sub    $0x8,%rsp
  403b94:	48 89 c7             	mov    %rax,%rdi
  403b97:	48 8b 47 f8          	mov    -0x8(%rdi),%rax
  403b9b:	48 c1 e8 0a          	shr    $0xa,%rax
  403b9f:	48 8d 04 c5 ff ff ff 	lea    -0x1(,%rax,8),%rax
  403ba6:	ff 
  403ba7:	48 0f b6 1c 07       	movzbq (%rdi,%rax,1),%rbx
  403bac:	48 29 d8             	sub    %rbx,%rax
  403baf:	48 8d 74 00 01       	lea    0x1(%rax,%rax,1),%rsi
  403bb4:	49 83 ef 28          	sub    $0x28,%r15
  403bb8:	48 8d 05 e1 92 22 00 	lea    0x2292e1(%rip),%rax        # 62cea0 <caml_young_limit>
  403bbf:	4c 3b 38             	cmp    (%rax),%r15
  403bc2:	72 36                	jb     403bfa <camlPervasives__valid_float_lexem_1150+0x6a>
  403bc4:	49 8d 5f 08          	lea    0x8(%r15),%rbx
  403bc8:	48 c7 43 f8 f7 10 00 	movq   $0x10f7,-0x8(%rbx)
  403bcf:	00 
  403bd0:	48 8d 05 39 00 00 00 	lea    0x39(%rip),%rax        # 403c10 <camlPervasives__loop_1153>
  403bd7:	48 89 03             	mov    %rax,(%rbx)
  403bda:	48 c7 43 08 03 00 00 	movq   $0x3,0x8(%rbx)
  403be1:	00 
  403be2:	48 89 7b 10          	mov    %rdi,0x10(%rbx)
  403be6:	48 89 73 18          	mov    %rsi,0x18(%rbx)
  403bea:	48 c7 c0 01 00 00 00 	mov    $0x1,%rax
  403bf1:	48 83 c4 08          	add    $0x8,%rsp
  403bf5:	e9 16 00 00 00       	jmpq   403c10 <camlPervasives__loop_1153>
  403bfa:	e8 21 5f 01 00       	callq  419b20 <caml_call_gc>
  403bff:	eb b3                	jmp    403bb4 <camlPervasives__valid_float_lexem_1150+0x24>
  403c01:	0f 1f 44 00 00       	nopl   0x0(%rax,%rax,1)
  403c06:	66 2e 0f 1f 84 00 00 	nopw   %cs:0x0(%rax,%rax,1)
  403c0d:	00 00 00 

0000000000403c10 <camlPervasives__loop_1153>:
  403c10:	48 83 ec 08          	sub    $0x8,%rsp
  403c14:	48 8b 7b 18          	mov    0x18(%rbx),%rdi
  403c18:	48 39 f8             	cmp    %rdi,%rax
  403c1b:	7c 17                	jl     403c34 <camlPervasives__loop_1153+0x24>
  403c1d:	48 8d 3d bc 6e 22 00 	lea    0x226ebc(%rip),%rdi        # 62aae0 <camlPervasives__16>
  403c24:	48 8b 43 10          	mov    0x10(%rbx),%rax
  403c28:	48 89 fb             	mov    %rdi,%rbx
  403c2b:	48 83 c4 08          	add    $0x8,%rsp
  403c2f:	e9 dc fd ff ff       	jmpq   403a10 <camlPervasives__$5e_1117>
  403c34:	48 8b 7b 10          	mov    0x10(%rbx),%rdi
  403c38:	48 89 c6             	mov    %rax,%rsi
  403c3b:	48 d1 fe             	sar    %rsi
  403c3e:	48 8b 57 f8          	mov    -0x8(%rdi),%rdx
  403c42:	48 c1 ea 0a          	shr    $0xa,%rdx
  403c46:	48 8d 14 d5 ff ff ff 	lea    -0x1(,%rdx,8),%rdx
  403c4d:	ff 
  403c4e:	48 0f b6 0c 17       	movzbq (%rdi,%rdx,1),%rcx
  403c53:	48 29 ca             	sub    %rcx,%rdx
  403c56:	48 39 f2             	cmp    %rsi,%rdx
  403c59:	76 2f                	jbe    403c8a <camlPervasives__loop_1153+0x7a>
  403c5b:	48 0f b6 3c 37       	movzbq (%rdi,%rsi,1),%rdi
  403c60:	48 8d 7c 3f 01       	lea    0x1(%rdi,%rdi,1),%rdi
  403c65:	48 83 ff 61          	cmp    $0x61,%rdi
  403c69:	7c 09                	jl     403c74 <camlPervasives__loop_1153+0x64>
  403c6b:	48 83 ff 75          	cmp    $0x75,%rdi
  403c6f:	7c 13                	jl     403c84 <camlPervasives__loop_1153+0x74>
  403c71:	eb 07                	jmp    403c7a <camlPervasives__loop_1153+0x6a>
  403c73:	90                   	nop
  403c74:	48 83 ff 5b          	cmp    $0x5b,%rdi
  403c78:	74 0a                	je     403c84 <camlPervasives__loop_1153+0x74>
  403c7a:	48 8b 43 10          	mov    0x10(%rbx),%rax
  403c7e:	48 83 c4 08          	add    $0x8,%rsp
  403c82:	c3                   	retq   
  403c83:	90                   	nop
  403c84:	48 83 c0 02          	add    $0x2,%rax
  403c88:	eb 8a                	jmp    403c14 <camlPervasives__loop_1153+0x4>
  403c8a:	e8 75 62 01 00       	callq  419f04 <caml_ml_array_bound_error>
  403c8f:	90                   	nop

0000000000403c90 <camlPervasives__string_of_float_1155>:
  403c90:	48 83 ec 08          	sub    $0x8,%rsp
  403c94:	48 8d 3d 55 6e 22 00 	lea    0x226e55(%rip),%rdi        # 62aaf0 <camlPervasives__17>
  403c9b:	48 89 c6             	mov    %rax,%rsi
  403c9e:	48 8d 05 cb 79 00 00 	lea    0x79cb(%rip),%rax        # 40b670 <caml_format_float>
  403ca5:	e8 9a 60 01 00       	callq  419d44 <caml_c_call>
  403caa:	4c 8d 1d f7 91 22 00 	lea    0x2291f7(%rip),%r11        # 62cea8 <caml_young_ptr>
  403cb1:	4d 8b 3b             	mov    (%r11),%r15
  403cb4:	48 83 c4 08          	add    $0x8,%rsp
  403cb8:	e9 d3 fe ff ff       	jmpq   403b90 <camlPervasives__valid_float_lexem_1150>
  403cbd:	0f 1f 00             	nopl   (%rax)

0000000000403cc0 <camlPervasives__$40_1158>:
  403cc0:	48 83 ec 08          	sub    $0x8,%rsp
  403cc4:	48 83 f8 01          	cmp    $0x1,%rax
  403cc8:	74 42                	je     403d0c <camlPervasives__$40_1158+0x4c>
  403cca:	48 89 04 24          	mov    %rax,(%rsp)
  403cce:	48 8b 40 08          	mov    0x8(%rax),%rax
  403cd2:	e8 e9 ff ff ff       	callq  403cc0 <camlPervasives__$40_1158>
  403cd7:	48 89 c3             	mov    %rax,%rbx
  403cda:	49 83 ef 18          	sub    $0x18,%r15
  403cde:	48 8d 05 bb 91 22 00 	lea    0x2291bb(%rip),%rax        # 62cea0 <caml_young_limit>
  403ce5:	4c 3b 38             	cmp    (%rax),%r15
  403ce8:	72 2a                	jb     403d14 <camlPervasives__$40_1158+0x54>
  403cea:	49 8d 47 08          	lea    0x8(%r15),%rax
  403cee:	48 c7 40 f8 00 08 00 	movq   $0x800,-0x8(%rax)
  403cf5:	00 
  403cf6:	48 8b 3c 24          	mov    (%rsp),%rdi
  403cfa:	48 8b 3f             	mov    (%rdi),%rdi
  403cfd:	48 89 38             	mov    %rdi,(%rax)
  403d00:	48 89 58 08          	mov    %rbx,0x8(%rax)
  403d04:	48 83 c4 08          	add    $0x8,%rsp
  403d08:	c3                   	retq   
  403d09:	0f 1f 00             	nopl   (%rax)
  403d0c:	48 89 d8             	mov    %rbx,%rax
  403d0f:	48 83 c4 08          	add    $0x8,%rsp
  403d13:	c3                   	retq   
  403d14:	e8 07 5e 01 00       	callq  419b20 <caml_call_gc>
  403d19:	eb bf                	jmp    403cda <camlPervasives__$40_1158+0x1a>
  403d1b:	0f 1f 44 00 00       	nopl   0x0(%rax,%rax,1)

0000000000403d20 <camlPervasives__open_out_gen_1182>:
  403d20:	48 83 ec 18          	sub    $0x18,%rsp
  403d24:	48 89 3c 24          	mov    %rdi,(%rsp)
  403d28:	48 89 c6             	mov    %rax,%rsi
  403d2b:	48 89 da             	mov    %rbx,%rdx
  403d2e:	48 8d 05 ab e0 00 00 	lea    0xe0ab(%rip),%rax        # 411de0 <caml_sys_open>
  403d35:	e8 0a 60 01 00       	callq  419d44 <caml_c_call>
  403d3a:	4c 8d 1d 67 91 22 00 	lea    0x229167(%rip),%r11        # 62cea8 <caml_young_ptr>
  403d41:	4d 8b 3b             	mov    (%r11),%r15
  403d44:	48 89 c7             	mov    %rax,%rdi
  403d47:	48 8d 05 12 9a 00 00 	lea    0x9a12(%rip),%rax        # 40d760 <caml_ml_open_descriptor_out>
  403d4e:	e8 f1 5f 01 00       	callq  419d44 <caml_c_call>
  403d53:	4c 8d 1d 4e 91 22 00 	lea    0x22914e(%rip),%r11        # 62cea8 <caml_young_ptr>
  403d5a:	4d 8b 3b             	mov    (%r11),%r15
  403d5d:	48 89 44 24 08       	mov    %rax,0x8(%rsp)
  403d62:	48 89 c7             	mov    %rax,%rdi
  403d65:	48 8b 34 24          	mov    (%rsp),%rsi
  403d69:	48 8d 05 30 9a 00 00 	lea    0x9a30(%rip),%rax        # 40d7a0 <caml_ml_set_channel_name>
  403d70:	e8 cf 5f 01 00       	callq  419d44 <caml_c_call>
  403d75:	4c 8d 1d 2c 91 22 00 	lea    0x22912c(%rip),%r11        # 62cea8 <caml_young_ptr>
  403d7c:	4d 8b 3b             	mov    (%r11),%r15
  403d7f:	48 8b 44 24 08       	mov    0x8(%rsp),%rax
  403d84:	48 83 c4 18          	add    $0x18,%rsp
  403d88:	c3                   	retq   
  403d89:	0f 1f 80 00 00 00 00 	nopl   0x0(%rax)

0000000000403d90 <camlPervasives__open_out_1187>:
  403d90:	48 89 c7             	mov    %rax,%rdi
  403d93:	48 c7 c3 6d 03 00 00 	mov    $0x36d,%rbx
  403d9a:	48 8d 05 a7 6d 22 00 	lea    0x226da7(%rip),%rax        # 62ab48 <camlPervasives__21>
  403da1:	e9 7a ff ff ff       	jmpq   403d20 <camlPervasives__open_out_gen_1182>
  403da6:	66 2e 0f 1f 84 00 00 	nopw   %cs:0x0(%rax,%rax,1)
  403dad:	00 00 00 

0000000000403db0 <camlPervasives__open_out_bin_1189>:
  403db0:	48 89 c7             	mov    %rax,%rdi
  403db3:	48 c7 c3 6d 03 00 00 	mov    $0x36d,%rbx
  403dba:	48 8d 05 e7 6d 22 00 	lea    0x226de7(%rip),%rax        # 62aba8 <camlPervasives__25>
  403dc1:	e9 5a ff ff ff       	jmpq   403d20 <camlPervasives__open_out_gen_1182>
  403dc6:	66 2e 0f 1f 84 00 00 	nopw   %cs:0x0(%rax,%rax,1)
  403dcd:	00 00 00 

0000000000403dd0 <camlPervasives__flush_all_1193>:
  403dd0:	48 83 ec 08          	sub    $0x8,%rsp
  403dd4:	48 c7 c7 01 00 00 00 	mov    $0x1,%rdi
  403ddb:	48 8d 05 1e 9a 00 00 	lea    0x9a1e(%rip),%rax        # 40d800 <caml_ml_out_channels_list>
  403de2:	e8 5d 5f 01 00       	callq  419d44 <caml_c_call>
  403de7:	4c 8d 1d ba 90 22 00 	lea    0x2290ba(%rip),%r11        # 62cea8 <caml_young_ptr>
  403dee:	4d 8b 3b             	mov    (%r11),%r15
  403df1:	48 83 c4 08          	add    $0x8,%rsp
  403df5:	e9 06 00 00 00       	jmpq   403e00 <camlPervasives__iter_1194>
  403dfa:	66 0f 1f 44 00 00    	nopw   0x0(%rax,%rax,1)

0000000000403e00 <camlPervasives__iter_1194>:
  403e00:	48 83 ec 08          	sub    $0x8,%rsp
  403e04:	48 83 f8 01          	cmp    $0x1,%rax
  403e08:	74 3e                	je     403e48 <camlPervasives__iter_1194+0x48>
  403e0a:	48 89 04 24          	mov    %rax,(%rsp)
  403e0e:	e8 05 00 00 00       	callq  403e18 <camlPervasives__iter_1194+0x18>
  403e13:	eb 27                	jmp    403e3c <camlPervasives__iter_1194+0x3c>
  403e15:	0f 1f 00             	nopl   (%rax)
  403e18:	41 56                	push   %r14
  403e1a:	49 89 e6             	mov    %rsp,%r14
  403e1d:	48 8b 38             	mov    (%rax),%rdi
  403e20:	48 8d 05 39 9d 00 00 	lea    0x9d39(%rip),%rax        # 40db60 <caml_ml_flush>
  403e27:	e8 18 5f 01 00       	callq  419d44 <caml_c_call>
  403e2c:	4c 8d 1d 75 90 22 00 	lea    0x229075(%rip),%r11        # 62cea8 <caml_young_ptr>
  403e33:	4d 8b 3b             	mov    (%r11),%r15
  403e36:	41 5e                	pop    %r14
  403e38:	48 83 c4 08          	add    $0x8,%rsp
  403e3c:	48 8b 04 24          	mov    (%rsp),%rax
  403e40:	48 8b 40 08          	mov    0x8(%rax),%rax
  403e44:	eb be                	jmp    403e04 <camlPervasives__iter_1194+0x4>
  403e46:	66 90                	xchg   %ax,%ax
  403e48:	48 c7 c0 01 00 00 00 	mov    $0x1,%rax
  403e4f:	48 83 c4 08          	add    $0x8,%rsp
  403e53:	c3                   	retq   
  403e54:	66 90                	xchg   %ax,%ax
  403e56:	66 2e 0f 1f 84 00 00 	nopw   %cs:0x0(%rax,%rax,1)
  403e5d:	00 00 00 

0000000000403e60 <camlPervasives__output_bytes_1200>:
  403e60:	48 83 ec 08          	sub    $0x8,%rsp
  403e64:	48 8b 7b f8          	mov    -0x8(%rbx),%rdi
  403e68:	48 c1 ef 0a          	shr    $0xa,%rdi
  403e6c:	48 8d 3c fd ff ff ff 	lea    -0x1(,%rdi,8),%rdi
  403e73:	ff 
  403e74:	48 0f b6 34 3b       	movzbq (%rbx,%rdi,1),%rsi
  403e79:	48 29 f7             	sub    %rsi,%rdi
  403e7c:	48 8d 4c 3f 01       	lea    0x1(%rdi,%rdi,1),%rcx
  403e81:	48 c7 c2 01 00 00 00 	mov    $0x1,%rdx
  403e88:	48 89 c7             	mov    %rax,%rdi
  403e8b:	48 89 de             	mov    %rbx,%rsi
  403e8e:	48 8d 05 1b a0 00 00 	lea    0xa01b(%rip),%rax        # 40deb0 <caml_ml_output_bytes>
  403e95:	e8 aa 5e 01 00       	callq  419d44 <caml_c_call>
  403e9a:	4c 8d 1d 07 90 22 00 	lea    0x229007(%rip),%r11        # 62cea8 <caml_young_ptr>
  403ea1:	4d 8b 3b             	mov    (%r11),%r15
  403ea4:	48 83 c4 08          	add    $0x8,%rsp
  403ea8:	c3                   	retq   
  403ea9:	0f 1f 80 00 00 00 00 	nopl   0x0(%rax)

0000000000403eb0 <camlPervasives__output_string_1203>:
  403eb0:	48 83 ec 08          	sub    $0x8,%rsp
  403eb4:	48 8b 7b f8          	mov    -0x8(%rbx),%rdi
  403eb8:	48 c1 ef 0a          	shr    $0xa,%rdi
  403ebc:	48 8d 3c fd ff ff ff 	lea    -0x1(,%rdi,8),%rdi
  403ec3:	ff 
  403ec4:	48 0f b6 34 3b       	movzbq (%rbx,%rdi,1),%rsi
  403ec9:	48 29 f7             	sub    %rsi,%rdi
  403ecc:	48 8d 4c 3f 01       	lea    0x1(%rdi,%rdi,1),%rcx
  403ed1:	48 c7 c2 01 00 00 00 	mov    $0x1,%rdx
  403ed8:	48 89 c7             	mov    %rax,%rdi
  403edb:	48 89 de             	mov    %rbx,%rsi
  403ede:	48 8d 05 cb a0 00 00 	lea    0xa0cb(%rip),%rax        # 40dfb0 <caml_ml_output>
  403ee5:	e8 5a 5e 01 00       	callq  419d44 <caml_c_call>
  403eea:	4c 8d 1d b7 8f 22 00 	lea    0x228fb7(%rip),%r11        # 62cea8 <caml_young_ptr>
  403ef1:	4d 8b 3b             	mov    (%r11),%r15
  403ef4:	48 83 c4 08          	add    $0x8,%rsp
  403ef8:	c3                   	retq   
  403ef9:	0f 1f 80 00 00 00 00 	nopl   0x0(%rax)

0000000000403f00 <camlPervasives__output_1206>:
  403f00:	48 83 ec 08          	sub    $0x8,%rsp
  403f04:	48 89 fa             	mov    %rdi,%rdx
  403f07:	48 89 f1             	mov    %rsi,%rcx
  403f0a:	48 83 fa 01          	cmp    $0x1,%rdx
  403f0e:	7c 50                	jl     403f60 <camlPervasives__output_1206+0x60>
  403f10:	48 83 f9 01          	cmp    $0x1,%rcx
  403f14:	7c 4a                	jl     403f60 <camlPervasives__output_1206+0x60>
  403f16:	48 8b 7b f8          	mov    -0x8(%rbx),%rdi
  403f1a:	48 c1 ef 0a          	shr    $0xa,%rdi
  403f1e:	48 8d 3c fd ff ff ff 	lea    -0x1(,%rdi,8),%rdi
  403f25:	ff 
  403f26:	48 0f b6 34 3b       	movzbq (%rbx,%rdi,1),%rsi
  403f2b:	48 29 f7             	sub    %rsi,%rdi
  403f2e:	48 d1 e7             	shl    %rdi
  403f31:	48 29 cf             	sub    %rcx,%rdi
  403f34:	48 83 c7 02          	add    $0x2,%rdi
  403f38:	48 39 fa             	cmp    %rdi,%rdx
  403f3b:	7f 23                	jg     403f60 <camlPervasives__output_1206+0x60>
  403f3d:	48 89 c7             	mov    %rax,%rdi
  403f40:	48 89 de             	mov    %rbx,%rsi
  403f43:	48 8d 05 66 9f 00 00 	lea    0x9f66(%rip),%rax        # 40deb0 <caml_ml_output_bytes>
  403f4a:	e8 f5 5d 01 00       	callq  419d44 <caml_c_call>
  403f4f:	4c 8d 1d 52 8f 22 00 	lea    0x228f52(%rip),%r11        # 62cea8 <caml_young_ptr>
  403f56:	4d 8b 3b             	mov    (%r11),%r15
  403f59:	48 83 c4 08          	add    $0x8,%rsp
  403f5d:	c3                   	retq   
  403f5e:	66 90                	xchg   %ax,%ax
  403f60:	48 8d 05 59 6c 22 00 	lea    0x226c59(%rip),%rax        # 62abc0 <camlPervasives__26>
  403f67:	48 83 c4 08          	add    $0x8,%rsp
  403f6b:	e9 80 f9 ff ff       	jmpq   4038f0 <camlPervasives__invalid_arg_1007>

0000000000403f70 <camlPervasives__output_substring_1211>:
  403f70:	48 83 ec 08          	sub    $0x8,%rsp
  403f74:	48 89 fa             	mov    %rdi,%rdx
  403f77:	48 89 f1             	mov    %rsi,%rcx
  403f7a:	48 83 fa 01          	cmp    $0x1,%rdx
  403f7e:	7c 50                	jl     403fd0 <camlPervasives__output_substring_1211+0x60>
  403f80:	48 83 f9 01          	cmp    $0x1,%rcx
  403f84:	7c 4a                	jl     403fd0 <camlPervasives__output_substring_1211+0x60>
  403f86:	48 8b 7b f8          	mov    -0x8(%rbx),%rdi
  403f8a:	48 c1 ef 0a          	shr    $0xa,%rdi
  403f8e:	48 8d 3c fd ff ff ff 	lea    -0x1(,%rdi,8),%rdi
  403f95:	ff 
  403f96:	48 0f b6 34 3b       	movzbq (%rbx,%rdi,1),%rsi
  403f9b:	48 29 f7             	sub    %rsi,%rdi
  403f9e:	48 d1 e7             	shl    %rdi
  403fa1:	48 29 cf             	sub    %rcx,%rdi
  403fa4:	48 83 c7 02          	add    $0x2,%rdi
  403fa8:	48 39 fa             	cmp    %rdi,%rdx
  403fab:	7f 23                	jg     403fd0 <camlPervasives__output_substring_1211+0x60>
  403fad:	48 89 c7             	mov    %rax,%rdi
  403fb0:	48 89 de             	mov    %rbx,%rsi
  403fb3:	48 8d 05 f6 9f 00 00 	lea    0x9ff6(%rip),%rax        # 40dfb0 <caml_ml_output>
  403fba:	e8 85 5d 01 00       	callq  419d44 <caml_c_call>
  403fbf:	4c 8d 1d e2 8e 22 00 	lea    0x228ee2(%rip),%r11        # 62cea8 <caml_young_ptr>
  403fc6:	4d 8b 3b             	mov    (%r11),%r15
  403fc9:	48 83 c4 08          	add    $0x8,%rsp
  403fcd:	c3                   	retq   
  403fce:	66 90                	xchg   %ax,%ax
  403fd0:	48 8d 05 f9 6b 22 00 	lea    0x226bf9(%rip),%rax        # 62abd0 <camlPervasives__27>
  403fd7:	48 83 c4 08          	add    $0x8,%rsp
  403fdb:	e9 10 f9 ff ff       	jmpq   4038f0 <camlPervasives__invalid_arg_1007>

0000000000403fe0 <camlPervasives__output_value_1219>:
  403fe0:	48 83 ec 08          	sub    $0x8,%rsp
  403fe4:	48 c7 c2 01 00 00 00 	mov    $0x1,%rdx
  403feb:	48 89 c7             	mov    %rax,%rdi
  403fee:	48 89 de             	mov    %rbx,%rsi
  403ff1:	48 8d 05 a8 bc 00 00 	lea    0xbca8(%rip),%rax        # 40fca0 <caml_output_value>
  403ff8:	e8 47 5d 01 00       	callq  419d44 <caml_c_call>
  403ffd:	4c 8d 1d a4 8e 22 00 	lea    0x228ea4(%rip),%r11        # 62cea8 <caml_young_ptr>
  404004:	4d 8b 3b             	mov    (%r11),%r15
  404007:	48 83 c4 08          	add    $0x8,%rsp
  40400b:	c3                   	retq   
  40400c:	0f 1f 40 00          	nopl   0x0(%rax)

0000000000404010 <camlPervasives__close_out_1226>:
  404010:	48 83 ec 08          	sub    $0x8,%rsp
  404014:	48 89 04 24          	mov    %rax,(%rsp)
  404018:	48 89 c7             	mov    %rax,%rdi
  40401b:	48 8d 05 3e 9b 00 00 	lea    0x9b3e(%rip),%rax        # 40db60 <caml_ml_flush>
  404022:	e8 1d 5d 01 00       	callq  419d44 <caml_c_call>
  404027:	4c 8d 1d 7a 8e 22 00 	lea    0x228e7a(%rip),%r11        # 62cea8 <caml_young_ptr>
  40402e:	4d 8b 3b             	mov    (%r11),%r15
  404031:	48 8b 3c 24          	mov    (%rsp),%rdi
  404035:	48 8d 05 44 99 00 00 	lea    0x9944(%rip),%rax        # 40d980 <caml_ml_close_channel>
  40403c:	e8 03 5d 01 00       	callq  419d44 <caml_c_call>
  404041:	4c 8d 1d 60 8e 22 00 	lea    0x228e60(%rip),%r11        # 62cea8 <caml_young_ptr>
  404048:	4d 8b 3b             	mov    (%r11),%r15
  40404b:	48 83 c4 08          	add    $0x8,%rsp
  40404f:	c3                   	retq   

0000000000404050 <camlPervasives__close_out_noerr_1228>:
  404050:	48 83 ec 08          	sub    $0x8,%rsp
  404054:	48 89 04 24          	mov    %rax,(%rsp)
  404058:	e8 03 00 00 00       	callq  404060 <camlPervasives__close_out_noerr_1228+0x10>
  40405d:	eb 25                	jmp    404084 <camlPervasives__close_out_noerr_1228+0x34>
  40405f:	90                   	nop
  404060:	41 56                	push   %r14
  404062:	49 89 e6             	mov    %rsp,%r14
  404065:	48 89 c7             	mov    %rax,%rdi
  404068:	48 8d 05 f1 9a 00 00 	lea    0x9af1(%rip),%rax        # 40db60 <caml_ml_flush>
  40406f:	e8 d0 5c 01 00       	callq  419d44 <caml_c_call>
  404074:	4c 8d 1d 2d 8e 22 00 	lea    0x228e2d(%rip),%r11        # 62cea8 <caml_young_ptr>
  40407b:	4d 8b 3b             	mov    (%r11),%r15
  40407e:	41 5e                	pop    %r14
  404080:	48 83 c4 08          	add    $0x8,%rsp
  404084:	e8 0f 00 00 00       	callq  404098 <camlPervasives__close_out_noerr_1228+0x48>
  404089:	48 c7 c0 01 00 00 00 	mov    $0x1,%rax
  404090:	48 83 c4 08          	add    $0x8,%rsp
  404094:	c3                   	retq   
  404095:	0f 1f 00             	nopl   (%rax)
  404098:	41 56                	push   %r14
  40409a:	49 89 e6             	mov    %rsp,%r14
  40409d:	48 8b 7c 24 10       	mov    0x10(%rsp),%rdi
  4040a2:	48 8d 05 d7 98 00 00 	lea    0x98d7(%rip),%rax        # 40d980 <caml_ml_close_channel>
  4040a9:	e8 96 5c 01 00       	callq  419d44 <caml_c_call>
  4040ae:	4c 8d 1d f3 8d 22 00 	lea    0x228df3(%rip),%r11        # 62cea8 <caml_young_ptr>
  4040b5:	4d 8b 3b             	mov    (%r11),%r15
  4040b8:	41 5e                	pop    %r14
  4040ba:	48 83 c4 08          	add    $0x8,%rsp
  4040be:	48 83 c4 08          	add    $0x8,%rsp
  4040c2:	c3                   	retq   
  4040c3:	0f 1f 00             	nopl   (%rax)
  4040c6:	66 2e 0f 1f 84 00 00 	nopw   %cs:0x0(%rax,%rax,1)
  4040cd:	00 00 00 

00000000004040d0 <camlPervasives__open_in_gen_1232>:
  4040d0:	48 83 ec 18          	sub    $0x18,%rsp
  4040d4:	48 89 3c 24          	mov    %rdi,(%rsp)
  4040d8:	48 89 c6             	mov    %rax,%rsi
  4040db:	48 89 da             	mov    %rbx,%rdx
  4040de:	48 8d 05 fb dc 00 00 	lea    0xdcfb(%rip),%rax        # 411de0 <caml_sys_open>
  4040e5:	e8 5a 5c 01 00       	callq  419d44 <caml_c_call>
  4040ea:	4c 8d 1d b7 8d 22 00 	lea    0x228db7(%rip),%r11        # 62cea8 <caml_young_ptr>
  4040f1:	4d 8b 3b             	mov    (%r11),%r15
  4040f4:	48 89 c7             	mov    %rax,%rdi
  4040f7:	48 8d 05 32 96 00 00 	lea    0x9632(%rip),%rax        # 40d730 <caml_ml_open_descriptor_in>
  4040fe:	e8 41 5c 01 00       	callq  419d44 <caml_c_call>
  404103:	4c 8d 1d 9e 8d 22 00 	lea    0x228d9e(%rip),%r11        # 62cea8 <caml_young_ptr>
  40410a:	4d 8b 3b             	mov    (%r11),%r15
  40410d:	48 89 44 24 08       	mov    %rax,0x8(%rsp)
  404112:	48 89 c7             	mov    %rax,%rdi
  404115:	48 8b 34 24          	mov    (%rsp),%rsi
  404119:	48 8d 05 80 96 00 00 	lea    0x9680(%rip),%rax        # 40d7a0 <caml_ml_set_channel_name>
  404120:	e8 1f 5c 01 00       	callq  419d44 <caml_c_call>
  404125:	4c 8d 1d 7c 8d 22 00 	lea    0x228d7c(%rip),%r11        # 62cea8 <caml_young_ptr>
  40412c:	4d 8b 3b             	mov    (%r11),%r15
  40412f:	48 8b 44 24 08       	mov    0x8(%rsp),%rax
  404134:	48 83 c4 18          	add    $0x18,%rsp
  404138:	c3                   	retq   
  404139:	0f 1f 80 00 00 00 00 	nopl   0x0(%rax)

0000000000404140 <camlPervasives__open_in_1237>:
  404140:	48 89 c7             	mov    %rax,%rdi
  404143:	48 c7 c3 01 00 00 00 	mov    $0x1,%rbx
  40414a:	48 8d 05 9f 6a 22 00 	lea    0x226a9f(%rip),%rax        # 62abf0 <camlPervasives__28>
  404151:	e9 7a ff ff ff       	jmpq   4040d0 <camlPervasives__open_in_gen_1232>
  404156:	66 2e 0f 1f 84 00 00 	nopw   %cs:0x0(%rax,%rax,1)
  40415d:	00 00 00 

0000000000404160 <camlPervasives__open_in_bin_1239>:
  404160:	48 89 c7             	mov    %rax,%rdi
  404163:	48 c7 c3 01 00 00 00 	mov    $0x1,%rbx
  40416a:	48 8d 05 97 6a 22 00 	lea    0x226a97(%rip),%rax        # 62ac08 <camlPervasives__29>
  404171:	e9 5a ff ff ff       	jmpq   4040d0 <camlPervasives__open_in_gen_1232>
  404176:	66 2e 0f 1f 84 00 00 	nopw   %cs:0x0(%rax,%rax,1)
  40417d:	00 00 00 

0000000000404180 <camlPervasives__input_1243>:
  404180:	48 83 ec 08          	sub    $0x8,%rsp
  404184:	48 89 fa             	mov    %rdi,%rdx
  404187:	48 89 f1             	mov    %rsi,%rcx
  40418a:	48 83 fa 01          	cmp    $0x1,%rdx
  40418e:	7c 50                	jl     4041e0 <camlPervasives__input_1243+0x60>
  404190:	48 83 f9 01          	cmp    $0x1,%rcx
  404194:	7c 4a                	jl     4041e0 <camlPervasives__input_1243+0x60>
  404196:	48 8b 7b f8          	mov    -0x8(%rbx),%rdi
  40419a:	48 c1 ef 0a          	shr    $0xa,%rdi
  40419e:	48 8d 3c fd ff ff ff 	lea    -0x1(,%rdi,8),%rdi
  4041a5:	ff 
  4041a6:	48 0f b6 34 3b       	movzbq (%rbx,%rdi,1),%rsi
  4041ab:	48 29 f7             	sub    %rsi,%rdi
  4041ae:	48 d1 e7             	shl    %rdi
  4041b1:	48 29 cf             	sub    %rcx,%rdi
  4041b4:	48 83 c7 02          	add    $0x2,%rdi
  4041b8:	48 39 fa             	cmp    %rdi,%rdx
  4041bb:	7f 23                	jg     4041e0 <camlPervasives__input_1243+0x60>
  4041bd:	48 89 c7             	mov    %rax,%rdi
  4041c0:	48 89 de             	mov    %rbx,%rsi
  4041c3:	48 8d 05 56 a1 00 00 	lea    0xa156(%rip),%rax        # 40e320 <caml_ml_input>
  4041ca:	e8 75 5b 01 00       	callq  419d44 <caml_c_call>
  4041cf:	4c 8d 1d d2 8c 22 00 	lea    0x228cd2(%rip),%r11        # 62cea8 <caml_young_ptr>
  4041d6:	4d 8b 3b             	mov    (%r11),%r15
  4041d9:	48 83 c4 08          	add    $0x8,%rsp
  4041dd:	c3                   	retq   
  4041de:	66 90                	xchg   %ax,%ax
  4041e0:	48 8d 05 39 6a 22 00 	lea    0x226a39(%rip),%rax        # 62ac20 <camlPervasives__30>
  4041e7:	48 83 c4 08          	add    $0x8,%rsp
  4041eb:	e9 00 f7 ff ff       	jmpq   4038f0 <camlPervasives__invalid_arg_1007>

00000000004041f0 <camlPervasives__unsafe_really_input_1248>:
  4041f0:	48 83 ec 28          	sub    $0x28,%rsp
  4041f4:	48 89 fa             	mov    %rdi,%rdx
  4041f7:	48 89 f1             	mov    %rsi,%rcx
  4041fa:	48 83 f9 01          	cmp    $0x1,%rcx
  4041fe:	7f 0c                	jg     40420c <camlPervasives__unsafe_really_input_1248+0x1c>
  404200:	48 c7 c0 01 00 00 00 	mov    $0x1,%rax
  404207:	48 83 c4 28          	add    $0x28,%rsp
  40420b:	c3                   	retq   
  40420c:	48 89 0c 24          	mov    %rcx,(%rsp)
  404210:	48 89 54 24 08       	mov    %rdx,0x8(%rsp)
  404215:	48 89 5c 24 18       	mov    %rbx,0x18(%rsp)
  40421a:	48 89 44 24 10       	mov    %rax,0x10(%rsp)
  40421f:	48 89 c7             	mov    %rax,%rdi
  404222:	48 89 de             	mov    %rbx,%rsi
  404225:	48 8d 05 f4 a0 00 00 	lea    0xa0f4(%rip),%rax        # 40e320 <caml_ml_input>
  40422c:	e8 13 5b 01 00       	callq  419d44 <caml_c_call>
  404231:	4c 8d 1d 70 8c 22 00 	lea    0x228c70(%rip),%r11        # 62cea8 <caml_young_ptr>
  404238:	4d 8b 3b             	mov    (%r11),%r15
  40423b:	48 83 f8 01          	cmp    $0x1,%rax
  40423f:	75 1b                	jne    40425c <camlPervasives__unsafe_really_input_1248+0x6c>
  404241:	48 8d 05 10 90 23 00 	lea    0x239010(%rip),%rax        # 63d258 <caml_backtrace_pos>
  404248:	48 31 db             	xor    %rbx,%rbx
  40424b:	89 18                	mov    %ebx,(%rax)
  40424d:	48 8d 05 64 51 22 00 	lea    0x225164(%rip),%rax        # 6293b8 <caml_exn_End_of_file>
  404254:	e8 ab 5b 01 00       	callq  419e04 <caml_raise_exn>
  404259:	0f 1f 00             	nopl   (%rax)
  40425c:	48 8b 34 24          	mov    (%rsp),%rsi
  404260:	48 29 c6             	sub    %rax,%rsi
  404263:	48 ff c6             	inc    %rsi
  404266:	48 8b 5c 24 08       	mov    0x8(%rsp),%rbx
  40426b:	48 8d 7c 03 ff       	lea    -0x1(%rbx,%rax,1),%rdi
  404270:	48 8b 44 24 10       	mov    0x10(%rsp),%rax
  404275:	48 8b 5c 24 18       	mov    0x18(%rsp),%rbx
  40427a:	e9 75 ff ff ff       	jmpq   4041f4 <camlPervasives__unsafe_really_input_1248+0x4>
  40427f:	90                   	nop

0000000000404280 <camlPervasives__really_input_1254>:
  404280:	48 83 ff 01          	cmp    $0x1,%rdi
  404284:	7c 32                	jl     4042b8 <camlPervasives__really_input_1254+0x38>
  404286:	48 83 fe 01          	cmp    $0x1,%rsi
  40428a:	7c 2c                	jl     4042b8 <camlPervasives__really_input_1254+0x38>
  40428c:	48 8b 53 f8          	mov    -0x8(%rbx),%rdx
  404290:	48 c1 ea 0a          	shr    $0xa,%rdx
  404294:	48 8d 14 d5 ff ff ff 	lea    -0x1(,%rdx,8),%rdx
  40429b:	ff 
  40429c:	48 0f b6 0c 13       	movzbq (%rbx,%rdx,1),%rcx
  4042a1:	48 29 ca             	sub    %rcx,%rdx
  4042a4:	48 d1 e2             	shl    %rdx
  4042a7:	48 29 f2             	sub    %rsi,%rdx
  4042aa:	48 83 c2 02          	add    $0x2,%rdx
  4042ae:	48 39 d7             	cmp    %rdx,%rdi
  4042b1:	7f 05                	jg     4042b8 <camlPervasives__really_input_1254+0x38>
  4042b3:	e9 38 ff ff ff       	jmpq   4041f0 <camlPervasives__unsafe_really_input_1248>
  4042b8:	48 8d 05 71 69 22 00 	lea    0x226971(%rip),%rax        # 62ac30 <camlPervasives__31>
  4042bf:	e9 2c f6 ff ff       	jmpq   4038f0 <camlPervasives__invalid_arg_1007>
  4042c4:	66 90                	xchg   %ax,%ax
  4042c6:	66 2e 0f 1f 84 00 00 	nopw   %cs:0x0(%rax,%rax,1)
  4042cd:	00 00 00 

00000000004042d0 <camlPervasives__really_input_string_1259>:
  4042d0:	48 83 ec 18          	sub    $0x18,%rsp
  4042d4:	48 89 04 24          	mov    %rax,(%rsp)
  4042d8:	48 89 5c 24 08       	mov    %rbx,0x8(%rsp)
  4042dd:	48 89 df             	mov    %rbx,%rdi
  4042e0:	48 8d 05 59 83 00 00 	lea    0x8359(%rip),%rax        # 40c640 <caml_create_bytes>
  4042e7:	e8 58 5a 01 00       	callq  419d44 <caml_c_call>
  4042ec:	4c 8d 1d b5 8b 22 00 	lea    0x228bb5(%rip),%r11        # 62cea8 <caml_young_ptr>
  4042f3:	4d 8b 3b             	mov    (%r11),%r15
  4042f6:	48 89 c3             	mov    %rax,%rbx
  4042f9:	48 89 5c 24 10       	mov    %rbx,0x10(%rsp)
  4042fe:	48 c7 c7 01 00 00 00 	mov    $0x1,%rdi
  404305:	48 8b 04 24          	mov    (%rsp),%rax
  404309:	48 8b 74 24 08       	mov    0x8(%rsp),%rsi
  40430e:	e8 6d ff ff ff       	callq  404280 <camlPervasives__really_input_1254>
  404313:	48 8b 44 24 10       	mov    0x10(%rsp),%rax
  404318:	48 83 c4 18          	add    $0x18,%rsp
  40431c:	c3                   	retq   
  40431d:	0f 1f 00             	nopl   (%rax)

0000000000404320 <camlPervasives__input_line_1264>:
  404320:	48 83 ec 08          	sub    $0x8,%rsp
  404324:	48 89 c3             	mov    %rax,%rbx
  404327:	48 8d 35 2a 66 22 00 	lea    0x22662a(%rip),%rsi        # 62a958 <camlPervasives__114>
  40432e:	49 83 ef 30          	sub    $0x30,%r15
  404332:	48 8d 05 67 8b 22 00 	lea    0x228b67(%rip),%rax        # 62cea0 <caml_young_limit>
  404339:	4c 3b 38             	cmp    (%rax),%r15
  40433c:	72 48                	jb     404386 <camlPervasives__input_line_1264+0x66>
  40433e:	49 8d 7f 08          	lea    0x8(%r15),%rdi
  404342:	48 c7 47 f8 f7 14 00 	movq   $0x14f7,-0x8(%rdi)
  404349:	00 
  40434a:	48 8d 05 bf e0 ff ff 	lea    -0x1f41(%rip),%rax        # 402410 <caml_curry2>
  404351:	48 89 07             	mov    %rax,(%rdi)
  404354:	48 c7 47 08 05 00 00 	movq   $0x5,0x8(%rdi)
  40435b:	00 
  40435c:	48 8d 05 9d 00 00 00 	lea    0x9d(%rip),%rax        # 404400 <camlPervasives__scan_1272>
  404363:	48 89 47 10          	mov    %rax,0x10(%rdi)
  404367:	48 89 5f 18          	mov    %rbx,0x18(%rdi)
  40436b:	48 89 77 20          	mov    %rsi,0x20(%rdi)
  40436f:	48 c7 c3 01 00 00 00 	mov    $0x1,%rbx
  404376:	48 c7 c0 01 00 00 00 	mov    $0x1,%rax
  40437d:	48 83 c4 08          	add    $0x8,%rsp
  404381:	e9 7a 00 00 00       	jmpq   404400 <camlPervasives__scan_1272>
  404386:	e8 95 57 01 00       	callq  419b20 <caml_call_gc>
  40438b:	eb a1                	jmp    40432e <camlPervasives__input_line_1264+0xe>
  40438d:	0f 1f 00             	nopl   (%rax)

0000000000404390 <camlPervasives__build_result_1266>:
  404390:	48 83 ec 08          	sub    $0x8,%rsp
  404394:	48 89 c5             	mov    %rax,%rbp
  404397:	49 89 fc             	mov    %rdi,%r12
  40439a:	49 83 fc 01          	cmp    $0x1,%r12
  40439e:	74 4c                	je     4043ec <camlPervasives__build_result_1266+0x5c>
  4043a0:	49 8b 3c 24          	mov    (%r12),%rdi
  4043a4:	48 8b 47 f8          	mov    -0x8(%rdi),%rax
  4043a8:	48 c1 e8 0a          	shr    $0xa,%rax
  4043ac:	48 8d 04 c5 ff ff ff 	lea    -0x1(,%rax,8),%rax
  4043b3:	ff 
  4043b4:	48 0f b6 34 07       	movzbq (%rdi,%rax,1),%rsi
  4043b9:	48 29 f0             	sub    %rsi,%rax
  4043bc:	4c 8d 6c 00 01       	lea    0x1(%rax,%rax,1),%r13
  4043c1:	48 89 d9             	mov    %rbx,%rcx
  4043c4:	4c 29 e9             	sub    %r13,%rcx
  4043c7:	48 ff c1             	inc    %rcx
  4043ca:	48 c7 c6 01 00 00 00 	mov    $0x1,%rsi
  4043d1:	48 89 ea             	mov    %rbp,%rdx
  4043d4:	4d 89 e8             	mov    %r13,%r8
  4043d7:	e8 d4 87 00 00       	callq  40cbb0 <caml_blit_bytes>
  4043dc:	49 8b 7c 24 08       	mov    0x8(%r12),%rdi
  4043e1:	4c 29 eb             	sub    %r13,%rbx
  4043e4:	48 ff c3             	inc    %rbx
  4043e7:	48 89 e8             	mov    %rbp,%rax
  4043ea:	eb a8                	jmp    404394 <camlPervasives__build_result_1266+0x4>
  4043ec:	48 89 e8             	mov    %rbp,%rax
  4043ef:	48 83 c4 08          	add    $0x8,%rsp
  4043f3:	c3                   	retq   
  4043f4:	66 90                	xchg   %ax,%ax
  4043f6:	66 2e 0f 1f 84 00 00 	nopw   %cs:0x0(%rax,%rax,1)
  4043fd:	00 00 00 

0000000000404400 <camlPervasives__scan_1272>:
  404400:	48 83 ec 28          	sub    $0x28,%rsp
  404404:	48 89 44 24 20       	mov    %rax,0x20(%rsp)
  404409:	48 89 5c 24 18       	mov    %rbx,0x18(%rsp)
  40440e:	48 89 7c 24 08       	mov    %rdi,0x8(%rsp)
  404413:	48 8b 7f 18          	mov    0x18(%rdi),%rdi
  404417:	48 8d 05 62 a2 00 00 	lea    0xa262(%rip),%rax        # 40e680 <caml_ml_input_scan_line>
  40441e:	e8 21 59 01 00       	callq  419d44 <caml_c_call>
  404423:	4c 8d 1d 7e 8a 22 00 	lea    0x228a7e(%rip),%r11        # 62cea8 <caml_young_ptr>
  40442a:	4d 8b 3b             	mov    (%r11),%r15
  40442d:	48 83 f8 01          	cmp    $0x1,%rax
  404431:	75 59                	jne    40448c <camlPervasives__scan_1272+0x8c>
  404433:	48 8b 44 24 20       	mov    0x20(%rsp),%rax
  404438:	48 83 f8 01          	cmp    $0x1,%rax
  40443c:	74 36                	je     404474 <camlPervasives__scan_1272+0x74>
  40443e:	48 89 44 24 20       	mov    %rax,0x20(%rsp)
  404443:	48 8b 7c 24 18       	mov    0x18(%rsp),%rdi
  404448:	48 8d 05 f1 81 00 00 	lea    0x81f1(%rip),%rax        # 40c640 <caml_create_bytes>
  40444f:	e8 f0 58 01 00       	callq  419d44 <caml_c_call>
  404454:	4c 8d 1d 4d 8a 22 00 	lea    0x228a4d(%rip),%r11        # 62cea8 <caml_young_ptr>
  40445b:	4d 8b 3b             	mov    (%r11),%r15
  40445e:	48 8b 5c 24 18       	mov    0x18(%rsp),%rbx
  404463:	48 8b 7c 24 20       	mov    0x20(%rsp),%rdi
  404468:	48 83 c4 28          	add    $0x28,%rsp
  40446c:	e9 1f ff ff ff       	jmpq   404390 <camlPervasives__build_result_1266>
  404471:	0f 1f 00             	nopl   (%rax)
  404474:	48 8d 05 dd 8d 23 00 	lea    0x238ddd(%rip),%rax        # 63d258 <caml_backtrace_pos>
  40447b:	48 31 db             	xor    %rbx,%rbx
  40447e:	89 18                	mov    %ebx,(%rax)
  404480:	48 8d 05 31 4f 22 00 	lea    0x224f31(%rip),%rax        # 6293b8 <caml_exn_End_of_file>
  404487:	e8 78 59 01 00       	callq  419e04 <caml_raise_exn>
  40448c:	48 89 44 24 10       	mov    %rax,0x10(%rsp)
  404491:	48 83 f8 01          	cmp    $0x1,%rax
  404495:	0f 8e f9 00 00 00    	jle    404594 <camlPervasives__scan_1272+0x194>
  40449b:	48 83 c0 fe          	add    $0xfffffffffffffffe,%rax
  40449f:	48 89 c7             	mov    %rax,%rdi
  4044a2:	48 8d 05 97 81 00 00 	lea    0x8197(%rip),%rax        # 40c640 <caml_create_bytes>
  4044a9:	e8 96 58 01 00       	callq  419d44 <caml_c_call>
  4044ae:	4c 8d 1d f3 89 22 00 	lea    0x2289f3(%rip),%r11        # 62cea8 <caml_young_ptr>
  4044b5:	4d 8b 3b             	mov    (%r11),%r15
  4044b8:	48 89 04 24          	mov    %rax,(%rsp)
  4044bc:	48 8b 4c 24 10       	mov    0x10(%rsp),%rcx
  4044c1:	48 83 c1 fe          	add    $0xfffffffffffffffe,%rcx
  4044c5:	48 c7 c2 01 00 00 00 	mov    $0x1,%rdx
  4044cc:	48 8b 5c 24 08       	mov    0x8(%rsp),%rbx
  4044d1:	48 8b 7b 18          	mov    0x18(%rbx),%rdi
  4044d5:	48 89 c6             	mov    %rax,%rsi
  4044d8:	48 8d 05 41 9e 00 00 	lea    0x9e41(%rip),%rax        # 40e320 <caml_ml_input>
  4044df:	e8 60 58 01 00       	callq  419d44 <caml_c_call>
  4044e4:	4c 8d 1d bd 89 22 00 	lea    0x2289bd(%rip),%r11        # 62cea8 <caml_young_ptr>
  4044eb:	4d 8b 3b             	mov    (%r11),%r15
  4044ee:	48 8b 44 24 08       	mov    0x8(%rsp),%rax
  4044f3:	48 8b 78 18          	mov    0x18(%rax),%rdi
  4044f7:	48 8d 05 a2 9c 00 00 	lea    0x9ca2(%rip),%rax        # 40e1a0 <caml_ml_input_char>
  4044fe:	e8 41 58 01 00       	callq  419d44 <caml_c_call>
  404503:	4c 8d 1d 9e 89 22 00 	lea    0x22899e(%rip),%r11        # 62cea8 <caml_young_ptr>
  40450a:	4d 8b 3b             	mov    (%r11),%r15
  40450d:	48 8b 5c 24 20       	mov    0x20(%rsp),%rbx
  404512:	48 83 fb 01          	cmp    $0x1,%rbx
  404516:	74 70                	je     404588 <camlPervasives__scan_1272+0x188>
  404518:	48 8b 44 24 10       	mov    0x10(%rsp),%rax
  40451d:	48 8b 7c 24 18       	mov    0x18(%rsp),%rdi
  404522:	48 8d 7c 07 fd       	lea    -0x3(%rdi,%rax,1),%rdi
  404527:	48 89 7c 24 08       	mov    %rdi,0x8(%rsp)
  40452c:	49 83 ef 18          	sub    $0x18,%r15
  404530:	48 8d 05 69 89 22 00 	lea    0x228969(%rip),%rax        # 62cea0 <caml_young_limit>
  404537:	4c 3b 38             	cmp    (%rax),%r15
  40453a:	0f 82 fd 00 00 00    	jb     40463d <camlPervasives__scan_1272+0x23d>
  404540:	49 8d 47 08          	lea    0x8(%r15),%rax
  404544:	48 89 44 24 10       	mov    %rax,0x10(%rsp)
  404549:	48 c7 40 f8 00 08 00 	movq   $0x800,-0x8(%rax)
  404550:	00 
  404551:	48 8b 34 24          	mov    (%rsp),%rsi
  404555:	48 89 30             	mov    %rsi,(%rax)
  404558:	48 89 58 08          	mov    %rbx,0x8(%rax)
  40455c:	48 8d 05 dd 80 00 00 	lea    0x80dd(%rip),%rax        # 40c640 <caml_create_bytes>
  404563:	e8 dc 57 01 00       	callq  419d44 <caml_c_call>
  404568:	4c 8d 1d 39 89 22 00 	lea    0x228939(%rip),%r11        # 62cea8 <caml_young_ptr>
  40456f:	4d 8b 3b             	mov    (%r11),%r15
  404572:	48 8b 5c 24 08       	mov    0x8(%rsp),%rbx
  404577:	48 8b 7c 24 10       	mov    0x10(%rsp),%rdi
  40457c:	48 83 c4 28          	add    $0x28,%rsp
  404580:	e9 0b fe ff ff       	jmpq   404390 <camlPervasives__build_result_1266>
  404585:	0f 1f 00             	nopl   (%rax)
  404588:	48 8b 04 24          	mov    (%rsp),%rax
  40458c:	48 83 c4 28          	add    $0x28,%rsp
  404590:	c3                   	retq   
  404591:	0f 1f 00             	nopl   (%rax)
  404594:	48 c7 c7 02 00 00 00 	mov    $0x2,%rdi
  40459b:	48 29 c7             	sub    %rax,%rdi
  40459e:	48 8d 05 9b 80 00 00 	lea    0x809b(%rip),%rax        # 40c640 <caml_create_bytes>
  4045a5:	e8 9a 57 01 00       	callq  419d44 <caml_c_call>
  4045aa:	4c 8d 1d f7 88 22 00 	lea    0x2288f7(%rip),%r11        # 62cea8 <caml_young_ptr>
  4045b1:	4d 8b 3b             	mov    (%r11),%r15
  4045b4:	48 89 04 24          	mov    %rax,(%rsp)
  4045b8:	48 c7 c1 02 00 00 00 	mov    $0x2,%rcx
  4045bf:	48 8b 5c 24 10       	mov    0x10(%rsp),%rbx
  4045c4:	48 29 d9             	sub    %rbx,%rcx
  4045c7:	48 c7 c2 01 00 00 00 	mov    $0x1,%rdx
  4045ce:	48 8b 5c 24 08       	mov    0x8(%rsp),%rbx
  4045d3:	48 8b 7b 18          	mov    0x18(%rbx),%rdi
  4045d7:	48 89 c6             	mov    %rax,%rsi
  4045da:	48 8d 05 3f 9d 00 00 	lea    0x9d3f(%rip),%rax        # 40e320 <caml_ml_input>
  4045e1:	e8 5e 57 01 00       	callq  419d44 <caml_c_call>
  4045e6:	4c 8d 1d bb 88 22 00 	lea    0x2288bb(%rip),%r11        # 62cea8 <caml_young_ptr>
  4045ed:	4d 8b 3b             	mov    (%r11),%r15
  4045f0:	49 83 ef 18          	sub    $0x18,%r15
  4045f4:	48 8d 05 a5 88 22 00 	lea    0x2288a5(%rip),%rax        # 62cea0 <caml_young_limit>
  4045fb:	4c 3b 38             	cmp    (%rax),%r15
  4045fe:	72 36                	jb     404636 <camlPervasives__scan_1272+0x236>
  404600:	49 8d 47 08          	lea    0x8(%r15),%rax
  404604:	48 c7 40 f8 00 08 00 	movq   $0x800,-0x8(%rax)
  40460b:	00 
  40460c:	48 8b 1c 24          	mov    (%rsp),%rbx
  404610:	48 89 18             	mov    %rbx,(%rax)
  404613:	48 8b 5c 24 20       	mov    0x20(%rsp),%rbx
  404618:	48 89 58 08          	mov    %rbx,0x8(%rax)
  40461c:	48 8b 5c 24 18       	mov    0x18(%rsp),%rbx
  404621:	48 8b 7c 24 10       	mov    0x10(%rsp),%rdi
  404626:	48 29 fb             	sub    %rdi,%rbx
  404629:	48 ff c3             	inc    %rbx
  40462c:	48 8b 7c 24 08       	mov    0x8(%rsp),%rdi
  404631:	e9 ce fd ff ff       	jmpq   404404 <camlPervasives__scan_1272+0x4>
  404636:	e8 e5 54 01 00       	callq  419b20 <caml_call_gc>
  40463b:	eb b3                	jmp    4045f0 <camlPervasives__scan_1272+0x1f0>
  40463d:	e8 de 54 01 00       	callq  419b20 <caml_call_gc>
  404642:	e9 e5 fe ff ff       	jmpq   40452c <camlPervasives__scan_1272+0x12c>
  404647:	66 0f 1f 84 00 00 00 	nopw   0x0(%rax,%rax,1)
  40464e:	00 00 

0000000000404650 <camlPervasives__close_in_noerr_1286>:
  404650:	48 83 ec 08          	sub    $0x8,%rsp
  404654:	e8 0f 00 00 00       	callq  404668 <camlPervasives__close_in_noerr_1286+0x18>
  404659:	48 c7 c0 01 00 00 00 	mov    $0x1,%rax
  404660:	48 83 c4 08          	add    $0x8,%rsp
  404664:	c3                   	retq   
  404665:	0f 1f 00             	nopl   (%rax)
  404668:	41 56                	push   %r14
  40466a:	49 89 e6             	mov    %rsp,%r14
  40466d:	48 89 c7             	mov    %rax,%rdi
  404670:	48 8d 05 09 93 00 00 	lea    0x9309(%rip),%rax        # 40d980 <caml_ml_close_channel>
  404677:	e8 c8 56 01 00       	callq  419d44 <caml_c_call>
  40467c:	4c 8d 1d 25 88 22 00 	lea    0x228825(%rip),%r11        # 62cea8 <caml_young_ptr>
  404683:	4d 8b 3b             	mov    (%r11),%r15
  404686:	41 5e                	pop    %r14
  404688:	48 83 c4 08          	add    $0x8,%rsp
  40468c:	48 83 c4 08          	add    $0x8,%rsp
  404690:	c3                   	retq   
  404691:	0f 1f 44 00 00       	nopl   0x0(%rax,%rax,1)
  404696:	66 2e 0f 1f 84 00 00 	nopw   %cs:0x0(%rax,%rax,1)
  40469d:	00 00 00 

00000000004046a0 <camlPervasives__print_char_1289>:
  4046a0:	48 83 ec 08          	sub    $0x8,%rsp
  4046a4:	48 8d 1d dd 5f 22 00 	lea    0x225fdd(%rip),%rbx        # 62a688 <camlPervasives>
  4046ab:	48 8b bb b8 00 00 00 	mov    0xb8(%rbx),%rdi
  4046b2:	48 89 c6             	mov    %rax,%rsi
  4046b5:	48 8d 05 64 95 00 00 	lea    0x9564(%rip),%rax        # 40dc20 <caml_ml_output_char>
  4046bc:	e8 83 56 01 00       	callq  419d44 <caml_c_call>
  4046c1:	4c 8d 1d e0 87 22 00 	lea    0x2287e0(%rip),%r11        # 62cea8 <caml_young_ptr>
  4046c8:	4d 8b 3b             	mov    (%r11),%r15
  4046cb:	48 83 c4 08          	add    $0x8,%rsp
  4046cf:	c3                   	retq   

00000000004046d0 <camlPervasives__print_string_1291>:
  4046d0:	48 89 c3             	mov    %rax,%rbx
  4046d3:	48 8d 05 ae 5f 22 00 	lea    0x225fae(%rip),%rax        # 62a688 <camlPervasives>
  4046da:	48 8b 80 b8 00 00 00 	mov    0xb8(%rax),%rax
  4046e1:	e9 ca f7 ff ff       	jmpq   403eb0 <camlPervasives__output_string_1203>
  4046e6:	66 2e 0f 1f 84 00 00 	nopw   %cs:0x0(%rax,%rax,1)
  4046ed:	00 00 00 

00000000004046f0 <camlPervasives__print_bytes_1293>:
  4046f0:	48 89 c3             	mov    %rax,%rbx
  4046f3:	48 8d 05 8e 5f 22 00 	lea    0x225f8e(%rip),%rax        # 62a688 <camlPervasives>
  4046fa:	48 8b 80 b8 00 00 00 	mov    0xb8(%rax),%rax
  404701:	e9 5a f7 ff ff       	jmpq   403e60 <camlPervasives__output_bytes_1200>
  404706:	66 2e 0f 1f 84 00 00 	nopw   %cs:0x0(%rax,%rax,1)
  40470d:	00 00 00 

0000000000404710 <camlPervasives__print_int_1295>:
  404710:	48 83 ec 08          	sub    $0x8,%rsp
  404714:	e8 47 f4 ff ff       	callq  403b60 <camlPervasives__string_of_int_1146>
  404719:	48 89 c3             	mov    %rax,%rbx
  40471c:	48 8d 05 65 5f 22 00 	lea    0x225f65(%rip),%rax        # 62a688 <camlPervasives>
  404723:	48 8b 80 b8 00 00 00 	mov    0xb8(%rax),%rax
  40472a:	48 83 c4 08          	add    $0x8,%rsp
  40472e:	e9 7d f7 ff ff       	jmpq   403eb0 <camlPervasives__output_string_1203>
  404733:	0f 1f 00             	nopl   (%rax)
  404736:	66 2e 0f 1f 84 00 00 	nopw   %cs:0x0(%rax,%rax,1)
  40473d:	00 00 00 

0000000000404740 <camlPervasives__print_float_1297>:
  404740:	48 83 ec 08          	sub    $0x8,%rsp
  404744:	e8 47 f5 ff ff       	callq  403c90 <camlPervasives__string_of_float_1155>
  404749:	48 89 c3             	mov    %rax,%rbx
  40474c:	48 8d 05 35 5f 22 00 	lea    0x225f35(%rip),%rax        # 62a688 <camlPervasives>
  404753:	48 8b 80 b8 00 00 00 	mov    0xb8(%rax),%rax
  40475a:	48 83 c4 08          	add    $0x8,%rsp
  40475e:	e9 4d f7 ff ff       	jmpq   403eb0 <camlPervasives__output_string_1203>
  404763:	0f 1f 00             	nopl   (%rax)
  404766:	66 2e 0f 1f 84 00 00 	nopw   %cs:0x0(%rax,%rax,1)
  40476d:	00 00 00 

0000000000404770 <camlPervasives__print_endline_1299>:
  404770:	48 83 ec 08          	sub    $0x8,%rsp
  404774:	48 89 c3             	mov    %rax,%rbx
  404777:	48 8d 05 0a 5f 22 00 	lea    0x225f0a(%rip),%rax        # 62a688 <camlPervasives>
  40477e:	48 8b 80 b8 00 00 00 	mov    0xb8(%rax),%rax
  404785:	e8 26 f7 ff ff       	callq  403eb0 <camlPervasives__output_string_1203>
  40478a:	48 c7 c6 15 00 00 00 	mov    $0x15,%rsi
  404791:	48 8d 05 f0 5e 22 00 	lea    0x225ef0(%rip),%rax        # 62a688 <camlPervasives>
  404798:	48 8b b8 b8 00 00 00 	mov    0xb8(%rax),%rdi
  40479f:	48 8d 05 7a 94 00 00 	lea    0x947a(%rip),%rax        # 40dc20 <caml_ml_output_char>
  4047a6:	e8 99 55 01 00       	callq  419d44 <caml_c_call>
  4047ab:	4c 8d 1d f6 86 22 00 	lea    0x2286f6(%rip),%r11        # 62cea8 <caml_young_ptr>
  4047b2:	4d 8b 3b             	mov    (%r11),%r15
  4047b5:	48 8d 05 cc 5e 22 00 	lea    0x225ecc(%rip),%rax        # 62a688 <camlPervasives>
  4047bc:	48 8b b8 b8 00 00 00 	mov    0xb8(%rax),%rdi
  4047c3:	48 8d 05 96 93 00 00 	lea    0x9396(%rip),%rax        # 40db60 <caml_ml_flush>
  4047ca:	e8 75 55 01 00       	callq  419d44 <caml_c_call>
  4047cf:	4c 8d 1d d2 86 22 00 	lea    0x2286d2(%rip),%r11        # 62cea8 <caml_young_ptr>
  4047d6:	4d 8b 3b             	mov    (%r11),%r15
  4047d9:	48 83 c4 08          	add    $0x8,%rsp
  4047dd:	c3                   	retq   
  4047de:	66 90                	xchg   %ax,%ax

00000000004047e0 <camlPervasives__print_newline_1301>:
  4047e0:	48 83 ec 08          	sub    $0x8,%rsp
  4047e4:	48 c7 c6 15 00 00 00 	mov    $0x15,%rsi
  4047eb:	48 8d 05 96 5e 22 00 	lea    0x225e96(%rip),%rax        # 62a688 <camlPervasives>
  4047f2:	48 8b b8 b8 00 00 00 	mov    0xb8(%rax),%rdi
  4047f9:	48 8d 05 20 94 00 00 	lea    0x9420(%rip),%rax        # 40dc20 <caml_ml_output_char>
  404800:	e8 3f 55 01 00       	callq  419d44 <caml_c_call>
  404805:	4c 8d 1d 9c 86 22 00 	lea    0x22869c(%rip),%r11        # 62cea8 <caml_young_ptr>
  40480c:	4d 8b 3b             	mov    (%r11),%r15
  40480f:	48 8d 05 72 5e 22 00 	lea    0x225e72(%rip),%rax        # 62a688 <camlPervasives>
  404816:	48 8b b8 b8 00 00 00 	mov    0xb8(%rax),%rdi
  40481d:	48 8d 05 3c 93 00 00 	lea    0x933c(%rip),%rax        # 40db60 <caml_ml_flush>
  404824:	e8 1b 55 01 00       	callq  419d44 <caml_c_call>
  404829:	4c 8d 1d 78 86 22 00 	lea    0x228678(%rip),%r11        # 62cea8 <caml_young_ptr>
  404830:	4d 8b 3b             	mov    (%r11),%r15
  404833:	48 83 c4 08          	add    $0x8,%rsp
  404837:	c3                   	retq   
  404838:	0f 1f 84 00 00 00 00 	nopl   0x0(%rax,%rax,1)
  40483f:	00 

0000000000404840 <camlPervasives__prerr_char_1303>:
  404840:	48 83 ec 08          	sub    $0x8,%rsp
  404844:	48 8d 1d 3d 5e 22 00 	lea    0x225e3d(%rip),%rbx        # 62a688 <camlPervasives>
  40484b:	48 8b bb c0 00 00 00 	mov    0xc0(%rbx),%rdi
  404852:	48 89 c6             	mov    %rax,%rsi
  404855:	48 8d 05 c4 93 00 00 	lea    0x93c4(%rip),%rax        # 40dc20 <caml_ml_output_char>
  40485c:	e8 e3 54 01 00       	callq  419d44 <caml_c_call>
  404861:	4c 8d 1d 40 86 22 00 	lea    0x228640(%rip),%r11        # 62cea8 <caml_young_ptr>
  404868:	4d 8b 3b             	mov    (%r11),%r15
  40486b:	48 83 c4 08          	add    $0x8,%rsp
  40486f:	c3                   	retq   

0000000000404870 <camlPervasives__prerr_string_1305>:
  404870:	48 89 c3             	mov    %rax,%rbx
  404873:	48 8d 05 0e 5e 22 00 	lea    0x225e0e(%rip),%rax        # 62a688 <camlPervasives>
  40487a:	48 8b 80 c0 00 00 00 	mov    0xc0(%rax),%rax
  404881:	e9 2a f6 ff ff       	jmpq   403eb0 <camlPervasives__output_string_1203>
  404886:	66 2e 0f 1f 84 00 00 	nopw   %cs:0x0(%rax,%rax,1)
  40488d:	00 00 00 

0000000000404890 <camlPervasives__prerr_bytes_1307>:
  404890:	48 89 c3             	mov    %rax,%rbx
  404893:	48 8d 05 ee 5d 22 00 	lea    0x225dee(%rip),%rax        # 62a688 <camlPervasives>
  40489a:	48 8b 80 c0 00 00 00 	mov    0xc0(%rax),%rax
  4048a1:	e9 ba f5 ff ff       	jmpq   403e60 <camlPervasives__output_bytes_1200>
  4048a6:	66 2e 0f 1f 84 00 00 	nopw   %cs:0x0(%rax,%rax,1)
  4048ad:	00 00 00 

00000000004048b0 <camlPervasives__prerr_int_1309>:
  4048b0:	48 83 ec 08          	sub    $0x8,%rsp
  4048b4:	e8 a7 f2 ff ff       	callq  403b60 <camlPervasives__string_of_int_1146>
  4048b9:	48 89 c3             	mov    %rax,%rbx
  4048bc:	48 8d 05 c5 5d 22 00 	lea    0x225dc5(%rip),%rax        # 62a688 <camlPervasives>
  4048c3:	48 8b 80 c0 00 00 00 	mov    0xc0(%rax),%rax
  4048ca:	48 83 c4 08          	add    $0x8,%rsp
  4048ce:	e9 dd f5 ff ff       	jmpq   403eb0 <camlPervasives__output_string_1203>
  4048d3:	0f 1f 00             	nopl   (%rax)
  4048d6:	66 2e 0f 1f 84 00 00 	nopw   %cs:0x0(%rax,%rax,1)
  4048dd:	00 00 00 

00000000004048e0 <camlPervasives__prerr_float_1311>:
  4048e0:	48 83 ec 08          	sub    $0x8,%rsp
  4048e4:	e8 a7 f3 ff ff       	callq  403c90 <camlPervasives__string_of_float_1155>
  4048e9:	48 89 c3             	mov    %rax,%rbx
  4048ec:	48 8d 05 95 5d 22 00 	lea    0x225d95(%rip),%rax        # 62a688 <camlPervasives>
  4048f3:	48 8b 80 c0 00 00 00 	mov    0xc0(%rax),%rax
  4048fa:	48 83 c4 08          	add    $0x8,%rsp
  4048fe:	e9 ad f5 ff ff       	jmpq   403eb0 <camlPervasives__output_string_1203>
  404903:	0f 1f 00             	nopl   (%rax)
  404906:	66 2e 0f 1f 84 00 00 	nopw   %cs:0x0(%rax,%rax,1)
  40490d:	00 00 00 

0000000000404910 <camlPervasives__prerr_endline_1313>:
  404910:	48 83 ec 08          	sub    $0x8,%rsp
  404914:	48 89 c3             	mov    %rax,%rbx
  404917:	48 8d 05 6a 5d 22 00 	lea    0x225d6a(%rip),%rax        # 62a688 <camlPervasives>
  40491e:	48 8b 80 c0 00 00 00 	mov    0xc0(%rax),%rax
  404925:	e8 86 f5 ff ff       	callq  403eb0 <camlPervasives__output_string_1203>
  40492a:	48 c7 c6 15 00 00 00 	mov    $0x15,%rsi
  404931:	48 8d 05 50 5d 22 00 	lea    0x225d50(%rip),%rax        # 62a688 <camlPervasives>
  404938:	48 8b b8 c0 00 00 00 	mov    0xc0(%rax),%rdi
  40493f:	48 8d 05 da 92 00 00 	lea    0x92da(%rip),%rax        # 40dc20 <caml_ml_output_char>
  404946:	e8 f9 53 01 00       	callq  419d44 <caml_c_call>
  40494b:	4c 8d 1d 56 85 22 00 	lea    0x228556(%rip),%r11        # 62cea8 <caml_young_ptr>
  404952:	4d 8b 3b             	mov    (%r11),%r15
  404955:	48 8d 05 2c 5d 22 00 	lea    0x225d2c(%rip),%rax        # 62a688 <camlPervasives>
  40495c:	48 8b b8 c0 00 00 00 	mov    0xc0(%rax),%rdi
  404963:	48 8d 05 f6 91 00 00 	lea    0x91f6(%rip),%rax        # 40db60 <caml_ml_flush>
  40496a:	e8 d5 53 01 00       	callq  419d44 <caml_c_call>
  40496f:	4c 8d 1d 32 85 22 00 	lea    0x228532(%rip),%r11        # 62cea8 <caml_young_ptr>
  404976:	4d 8b 3b             	mov    (%r11),%r15
  404979:	48 83 c4 08          	add    $0x8,%rsp
  40497d:	c3                   	retq   
  40497e:	66 90                	xchg   %ax,%ax

0000000000404980 <camlPervasives__prerr_newline_1315>:
  404980:	48 83 ec 08          	sub    $0x8,%rsp
  404984:	48 c7 c6 15 00 00 00 	mov    $0x15,%rsi
  40498b:	48 8d 05 f6 5c 22 00 	lea    0x225cf6(%rip),%rax        # 62a688 <camlPervasives>
  404992:	48 8b b8 c0 00 00 00 	mov    0xc0(%rax),%rdi
  404999:	48 8d 05 80 92 00 00 	lea    0x9280(%rip),%rax        # 40dc20 <caml_ml_output_char>
  4049a0:	e8 9f 53 01 00       	callq  419d44 <caml_c_call>
  4049a5:	4c 8d 1d fc 84 22 00 	lea    0x2284fc(%rip),%r11        # 62cea8 <caml_young_ptr>
  4049ac:	4d 8b 3b             	mov    (%r11),%r15
  4049af:	48 8d 05 d2 5c 22 00 	lea    0x225cd2(%rip),%rax        # 62a688 <camlPervasives>
  4049b6:	48 8b b8 c0 00 00 00 	mov    0xc0(%rax),%rdi
  4049bd:	48 8d 05 9c 91 00 00 	lea    0x919c(%rip),%rax        # 40db60 <caml_ml_flush>
  4049c4:	e8 7b 53 01 00       	callq  419d44 <caml_c_call>
  4049c9:	4c 8d 1d d8 84 22 00 	lea    0x2284d8(%rip),%r11        # 62cea8 <caml_young_ptr>
  4049d0:	4d 8b 3b             	mov    (%r11),%r15
  4049d3:	48 83 c4 08          	add    $0x8,%rsp
  4049d7:	c3                   	retq   
  4049d8:	0f 1f 84 00 00 00 00 	nopl   0x0(%rax,%rax,1)
  4049df:	00 

00000000004049e0 <camlPervasives__read_line_1317>:
  4049e0:	48 83 ec 08          	sub    $0x8,%rsp
  4049e4:	48 8d 05 9d 5c 22 00 	lea    0x225c9d(%rip),%rax        # 62a688 <camlPervasives>
  4049eb:	48 8b b8 b8 00 00 00 	mov    0xb8(%rax),%rdi
  4049f2:	48 8d 05 67 91 00 00 	lea    0x9167(%rip),%rax        # 40db60 <caml_ml_flush>
  4049f9:	e8 46 53 01 00       	callq  419d44 <caml_c_call>
  4049fe:	4c 8d 1d a3 84 22 00 	lea    0x2284a3(%rip),%r11        # 62cea8 <caml_young_ptr>
  404a05:	4d 8b 3b             	mov    (%r11),%r15
  404a08:	48 8d 05 79 5c 22 00 	lea    0x225c79(%rip),%rax        # 62a688 <camlPervasives>
  404a0f:	48 8b 80 b0 00 00 00 	mov    0xb0(%rax),%rax
  404a16:	48 83 c4 08          	add    $0x8,%rsp
  404a1a:	e9 01 f9 ff ff       	jmpq   404320 <camlPervasives__input_line_1264>
  404a1f:	90                   	nop

0000000000404a20 <camlPervasives__read_int_1319>:
  404a20:	48 83 ec 08          	sub    $0x8,%rsp
  404a24:	48 c7 c0 01 00 00 00 	mov    $0x1,%rax
  404a2b:	e8 b0 ff ff ff       	callq  4049e0 <camlPervasives__read_line_1317>
  404a30:	48 89 c7             	mov    %rax,%rdi
  404a33:	48 8d 05 16 5b 00 00 	lea    0x5b16(%rip),%rax        # 40a550 <caml_int_of_string>
  404a3a:	e8 05 53 01 00       	callq  419d44 <caml_c_call>
  404a3f:	4c 8d 1d 62 84 22 00 	lea    0x228462(%rip),%r11        # 62cea8 <caml_young_ptr>
  404a46:	4d 8b 3b             	mov    (%r11),%r15
  404a49:	48 83 c4 08          	add    $0x8,%rsp
  404a4d:	c3                   	retq   
  404a4e:	66 90                	xchg   %ax,%ax

0000000000404a50 <camlPervasives__read_float_1321>:
  404a50:	48 83 ec 08          	sub    $0x8,%rsp
  404a54:	48 c7 c0 01 00 00 00 	mov    $0x1,%rax
  404a5b:	e8 80 ff ff ff       	callq  4049e0 <camlPervasives__read_line_1317>
  404a60:	48 89 c7             	mov    %rax,%rdi
  404a63:	48 8d 05 a6 6f 00 00 	lea    0x6fa6(%rip),%rax        # 40ba10 <caml_float_of_string>
  404a6a:	e8 d5 52 01 00       	callq  419d44 <caml_c_call>
  404a6f:	4c 8d 1d 32 84 22 00 	lea    0x228432(%rip),%r11        # 62cea8 <caml_young_ptr>
  404a76:	4d 8b 3b             	mov    (%r11),%r15
  404a79:	48 83 c4 08          	add    $0x8,%rsp
  404a7d:	c3                   	retq   
  404a7e:	66 90                	xchg   %ax,%ax

0000000000404a80 <camlPervasives__fun_1720>:
  404a80:	48 83 ec 08          	sub    $0x8,%rsp
  404a84:	48 89 c7             	mov    %rax,%rdi
  404a87:	48 89 de             	mov    %rbx,%rsi
  404a8a:	48 8d 05 ef 95 00 00 	lea    0x95ef(%rip),%rax        # 40e080 <caml_ml_seek_out_64>
  404a91:	e8 ae 52 01 00       	callq  419d44 <caml_c_call>
  404a96:	4c 8d 1d 0b 84 22 00 	lea    0x22840b(%rip),%r11        # 62cea8 <caml_young_ptr>
  404a9d:	4d 8b 3b             	mov    (%r11),%r15
  404aa0:	48 83 c4 08          	add    $0x8,%rsp
  404aa4:	c3                   	retq   
  404aa5:	90                   	nop
  404aa6:	66 2e 0f 1f 84 00 00 	nopw   %cs:0x0(%rax,%rax,1)
  404aad:	00 00 00 

0000000000404ab0 <camlPervasives__fun_1722>:
  404ab0:	48 83 ec 08          	sub    $0x8,%rsp
  404ab4:	48 89 c7             	mov    %rax,%rdi
  404ab7:	48 8d 05 c2 96 00 00 	lea    0x96c2(%rip),%rax        # 40e180 <caml_ml_pos_out_64>
  404abe:	e8 81 52 01 00       	callq  419d44 <caml_c_call>
  404ac3:	4c 8d 1d de 83 22 00 	lea    0x2283de(%rip),%r11        # 62cea8 <caml_young_ptr>
  404aca:	4d 8b 3b             	mov    (%r11),%r15
  404acd:	48 83 c4 08          	add    $0x8,%rsp
  404ad1:	c3                   	retq   
  404ad2:	0f 1f 40 00          	nopl   0x0(%rax)
  404ad6:	66 2e 0f 1f 84 00 00 	nopw   %cs:0x0(%rax,%rax,1)
  404add:	00 00 00 

0000000000404ae0 <camlPervasives__fun_1724>:
  404ae0:	48 83 ec 08          	sub    $0x8,%rsp
  404ae4:	48 89 c7             	mov    %rax,%rdi
  404ae7:	48 8d 05 62 8f 00 00 	lea    0x8f62(%rip),%rax        # 40da50 <caml_ml_channel_size_64>
  404aee:	e8 51 52 01 00       	callq  419d44 <caml_c_call>
  404af3:	4c 8d 1d ae 83 22 00 	lea    0x2283ae(%rip),%r11        # 62cea8 <caml_young_ptr>
  404afa:	4d 8b 3b             	mov    (%r11),%r15
  404afd:	48 83 c4 08          	add    $0x8,%rsp
  404b01:	c3                   	retq   
  404b02:	0f 1f 40 00          	nopl   0x0(%rax)
  404b06:	66 2e 0f 1f 84 00 00 	nopw   %cs:0x0(%rax,%rax,1)
  404b0d:	00 00 00 

0000000000404b10 <camlPervasives__fun_1726>:
  404b10:	48 83 ec 08          	sub    $0x8,%rsp
  404b14:	48 89 c7             	mov    %rax,%rdi
  404b17:	48 89 de             	mov    %rbx,%rsi
  404b1a:	48 8d 05 3f 9a 00 00 	lea    0x9a3f(%rip),%rax        # 40e560 <caml_ml_seek_in_64>
  404b21:	e8 1e 52 01 00       	callq  419d44 <caml_c_call>
  404b26:	4c 8d 1d 7b 83 22 00 	lea    0x22837b(%rip),%r11        # 62cea8 <caml_young_ptr>
  404b2d:	4d 8b 3b             	mov    (%r11),%r15
  404b30:	48 83 c4 08          	add    $0x8,%rsp
  404b34:	c3                   	retq   
  404b35:	90                   	nop
  404b36:	66 2e 0f 1f 84 00 00 	nopw   %cs:0x0(%rax,%rax,1)
  404b3d:	00 00 00 

0000000000404b40 <camlPervasives__fun_1728>:
  404b40:	48 83 ec 08          	sub    $0x8,%rsp
  404b44:	48 89 c7             	mov    %rax,%rdi
  404b47:	48 8d 05 12 9b 00 00 	lea    0x9b12(%rip),%rax        # 40e660 <caml_ml_pos_in_64>
  404b4e:	e8 f1 51 01 00       	callq  419d44 <caml_c_call>
  404b53:	4c 8d 1d 4e 83 22 00 	lea    0x22834e(%rip),%r11        # 62cea8 <caml_young_ptr>
  404b5a:	4d 8b 3b             	mov    (%r11),%r15
  404b5d:	48 83 c4 08          	add    $0x8,%rsp
  404b61:	c3                   	retq   
  404b62:	0f 1f 40 00          	nopl   0x0(%rax)
  404b66:	66 2e 0f 1f 84 00 00 	nopw   %cs:0x0(%rax,%rax,1)
  404b6d:	00 00 00 

0000000000404b70 <camlPervasives__fun_1730>:
  404b70:	48 83 ec 08          	sub    $0x8,%rsp
  404b74:	48 89 c7             	mov    %rax,%rdi
  404b77:	48 8d 05 d2 8e 00 00 	lea    0x8ed2(%rip),%rax        # 40da50 <caml_ml_channel_size_64>
  404b7e:	e8 c1 51 01 00       	callq  419d44 <caml_c_call>
  404b83:	4c 8d 1d 1e 83 22 00 	lea    0x22831e(%rip),%r11        # 62cea8 <caml_young_ptr>
  404b8a:	4d 8b 3b             	mov    (%r11),%r15
  404b8d:	48 83 c4 08          	add    $0x8,%rsp
  404b91:	c3                   	retq   
  404b92:	0f 1f 40 00          	nopl   0x0(%rax)
  404b96:	66 2e 0f 1f 84 00 00 	nopw   %cs:0x0(%rax,%rax,1)
  404b9d:	00 00 00 

0000000000404ba0 <camlPervasives__string_of_format_1355>:
  404ba0:	48 8b 40 08          	mov    0x8(%rax),%rax
  404ba4:	c3                   	retq   
  404ba5:	90                   	nop
  404ba6:	66 2e 0f 1f 84 00 00 	nopw   %cs:0x0(%rax,%rax,1)
  404bad:	00 00 00 

0000000000404bb0 <camlPervasives__$5e$5e_1359>:
  404bb0:	48 83 ec 18          	sub    $0x18,%rsp
  404bb4:	48 89 44 24 08       	mov    %rax,0x8(%rsp)
  404bb9:	48 89 1c 24          	mov    %rbx,(%rsp)
  404bbd:	48 8b 5b 08          	mov    0x8(%rbx),%rbx
  404bc1:	48 8d 05 88 60 22 00 	lea    0x226088(%rip),%rax        # 62ac50 <camlPervasives__33>
  404bc8:	e8 43 ee ff ff       	callq  403a10 <camlPervasives__$5e_1117>
  404bcd:	48 89 c3             	mov    %rax,%rbx
  404bd0:	48 8b 44 24 08       	mov    0x8(%rsp),%rax
  404bd5:	48 8b 40 08          	mov    0x8(%rax),%rax
  404bd9:	e8 32 ee ff ff       	callq  403a10 <camlPervasives__$5e_1117>
  404bde:	48 89 44 24 10       	mov    %rax,0x10(%rsp)
  404be3:	48 8b 04 24          	mov    (%rsp),%rax
  404be7:	48 8b 18             	mov    (%rax),%rbx
  404bea:	48 8b 44 24 08       	mov    0x8(%rsp),%rax
  404bef:	48 8b 00             	mov    (%rax),%rax
  404bf2:	e8 c9 e1 ff ff       	callq  402dc0 <camlCamlinternalFormatBasics__concat_fmt_1337>
  404bf7:	48 89 c3             	mov    %rax,%rbx
  404bfa:	49 83 ef 18          	sub    $0x18,%r15
  404bfe:	48 8d 05 9b 82 22 00 	lea    0x22829b(%rip),%rax        # 62cea0 <caml_young_limit>
  404c05:	4c 3b 38             	cmp    (%rax),%r15
  404c08:	72 1d                	jb     404c27 <camlPervasives__$5e$5e_1359+0x77>
  404c0a:	49 8d 47 08          	lea    0x8(%r15),%rax
  404c0e:	48 c7 40 f8 00 08 00 	movq   $0x800,-0x8(%rax)
  404c15:	00 
  404c16:	48 89 18             	mov    %rbx,(%rax)
  404c19:	48 8b 5c 24 10       	mov    0x10(%rsp),%rbx
  404c1e:	48 89 58 08          	mov    %rbx,0x8(%rax)
  404c22:	48 83 c4 18          	add    $0x18,%rsp
  404c26:	c3                   	retq   
  404c27:	e8 f4 4e 01 00       	callq  419b20 <caml_call_gc>
  404c2c:	eb cc                	jmp    404bfa <camlPervasives__$5e$5e_1359+0x4a>
  404c2e:	66 90                	xchg   %ax,%ax

0000000000404c30 <camlPervasives__at_exit_1366>:
  404c30:	48 83 ec 08          	sub    $0x8,%rsp
  404c34:	48 89 c3             	mov    %rax,%rbx
  404c37:	48 8d 3d 4a 5a 22 00 	lea    0x225a4a(%rip),%rdi        # 62a688 <camlPervasives>
  404c3e:	48 8b 87 b0 02 00 00 	mov    0x2b0(%rdi),%rax
  404c45:	48 8b 10             	mov    (%rax),%rdx
  404c48:	49 83 ef 28          	sub    $0x28,%r15
  404c4c:	48 8d 05 4d 82 22 00 	lea    0x22824d(%rip),%rax        # 62cea0 <caml_young_limit>
  404c53:	4c 3b 38             	cmp    (%rax),%r15
  404c56:	72 3e                	jb     404c96 <camlPervasives__at_exit_1366+0x66>
  404c58:	49 8d 77 08          	lea    0x8(%r15),%rsi
  404c5c:	48 c7 46 f8 f7 10 00 	movq   $0x10f7,-0x8(%rsi)
  404c63:	00 
  404c64:	48 8d 05 35 00 00 00 	lea    0x35(%rip),%rax        # 404ca0 <camlPervasives__fun_1735>
  404c6b:	48 89 06             	mov    %rax,(%rsi)
  404c6e:	48 c7 46 08 03 00 00 	movq   $0x3,0x8(%rsi)
  404c75:	00 
  404c76:	48 89 5e 10          	mov    %rbx,0x10(%rsi)
  404c7a:	48 89 56 18          	mov    %rdx,0x18(%rsi)
  404c7e:	48 8b bf b0 02 00 00 	mov    0x2b0(%rdi),%rdi
  404c85:	e8 86 4a 00 00       	callq  409710 <caml_modify>
  404c8a:	48 c7 c0 01 00 00 00 	mov    $0x1,%rax
  404c91:	48 83 c4 08          	add    $0x8,%rsp
  404c95:	c3                   	retq   
  404c96:	e8 85 4e 01 00       	callq  419b20 <caml_call_gc>
  404c9b:	eb ab                	jmp    404c48 <camlPervasives__at_exit_1366+0x18>
  404c9d:	0f 1f 00             	nopl   (%rax)

0000000000404ca0 <camlPervasives__fun_1735>:
  404ca0:	48 83 ec 08          	sub    $0x8,%rsp
  404ca4:	48 89 1c 24          	mov    %rbx,(%rsp)
  404ca8:	48 8b 5b 10          	mov    0x10(%rbx),%rbx
  404cac:	48 c7 c0 01 00 00 00 	mov    $0x1,%rax
  404cb3:	48 8b 3b             	mov    (%rbx),%rdi
  404cb6:	ff d7                	callq  *%rdi
  404cb8:	48 8b 04 24          	mov    (%rsp),%rax
  404cbc:	48 8b 58 18          	mov    0x18(%rax),%rbx
  404cc0:	48 c7 c0 01 00 00 00 	mov    $0x1,%rax
  404cc7:	48 8b 3b             	mov    (%rbx),%rdi
  404cca:	48 83 c4 08          	add    $0x8,%rsp
  404cce:	ff e7                	jmpq   *%rdi

0000000000404cd0 <camlPervasives__do_at_exit_1369>:
  404cd0:	48 8d 05 b1 59 22 00 	lea    0x2259b1(%rip),%rax        # 62a688 <camlPervasives>
  404cd7:	48 8b 80 b0 02 00 00 	mov    0x2b0(%rax),%rax
  404cde:	48 8b 18             	mov    (%rax),%rbx
  404ce1:	48 c7 c0 01 00 00 00 	mov    $0x1,%rax
  404ce8:	48 8b 3b             	mov    (%rbx),%rdi
  404ceb:	ff e7                	jmpq   *%rdi
  404ced:	0f 1f 00             	nopl   (%rax)

0000000000404cf0 <camlPervasives__exit_1371>:
  404cf0:	48 83 ec 08          	sub    $0x8,%rsp
  404cf4:	48 89 04 24          	mov    %rax,(%rsp)
  404cf8:	48 8d 05 89 59 22 00 	lea    0x225989(%rip),%rax        # 62a688 <camlPervasives>
  404cff:	48 8b 80 b0 02 00 00 	mov    0x2b0(%rax),%rax
  404d06:	48 8b 18             	mov    (%rax),%rbx
  404d09:	48 c7 c0 01 00 00 00 	mov    $0x1,%rax
  404d10:	48 8b 3b             	mov    (%rbx),%rdi
  404d13:	ff d7                	callq  *%rdi
  404d15:	48 8b 3c 24          	mov    (%rsp),%rdi
  404d19:	48 8d 05 d0 ce 00 00 	lea    0xced0(%rip),%rax        # 411bf0 <caml_sys_exit>
  404d20:	e8 1f 50 01 00       	callq  419d44 <caml_c_call>
  404d25:	4c 8d 1d 7c 81 22 00 	lea    0x22817c(%rip),%r11        # 62cea8 <caml_young_ptr>
  404d2c:	4d 8b 3b             	mov    (%r11),%r15
  404d2f:	48 83 c4 08          	add    $0x8,%rsp
  404d33:	c3                   	retq   
  404d34:	66 90                	xchg   %ax,%ax
  404d36:	66 2e 0f 1f 84 00 00 	nopw   %cs:0x0(%rax,%rax,1)
  404d3d:	00 00 00 

0000000000404d40 <camlPervasives__entry>:
  404d40:	48 83 ec 08          	sub    $0x8,%rsp
  404d44:	48 8d 05 3d 59 22 00 	lea    0x22593d(%rip),%rax        # 62a688 <camlPervasives>
  404d4b:	48 8d 1d 3e 67 22 00 	lea    0x22673e(%rip),%rbx        # 62b490 <camlPervasives__113>
  404d52:	48 89 98 68 02 00 00 	mov    %rbx,0x268(%rax)
  404d59:	48 8d 1d 18 67 22 00 	lea    0x226718(%rip),%rbx        # 62b478 <camlPervasives__112>
  404d60:	48 89 98 58 02 00 00 	mov    %rbx,0x258(%rax)
  404d67:	48 8d 1d f2 66 22 00 	lea    0x2266f2(%rip),%rbx        # 62b460 <camlPervasives__111>
  404d6e:	48 89 98 50 02 00 00 	mov    %rbx,0x250(%rax)
  404d75:	48 8d 1d cc 66 22 00 	lea    0x2266cc(%rip),%rbx        # 62b448 <camlPervasives__110>
  404d7c:	48 89 98 48 02 00 00 	mov    %rbx,0x248(%rax)
  404d83:	48 8d 1d 9e 66 22 00 	lea    0x22669e(%rip),%rbx        # 62b428 <camlPervasives__109>
  404d8a:	48 89 98 40 02 00 00 	mov    %rbx,0x240(%rax)
  404d91:	48 8d 1d 78 66 22 00 	lea    0x226678(%rip),%rbx        # 62b410 <camlPervasives__108>
  404d98:	48 89 98 38 02 00 00 	mov    %rbx,0x238(%rax)
  404d9f:	48 8d 1d 52 66 22 00 	lea    0x226652(%rip),%rbx        # 62b3f8 <camlPervasives__107>
  404da6:	48 89 98 30 02 00 00 	mov    %rbx,0x230(%rax)
  404dad:	48 8d 1d 2c 66 22 00 	lea    0x22662c(%rip),%rbx        # 62b3e0 <camlPervasives__106>
  404db4:	48 89 98 28 02 00 00 	mov    %rbx,0x228(%rax)
  404dbb:	48 8d 1d 06 66 22 00 	lea    0x226606(%rip),%rbx        # 62b3c8 <camlPervasives__105>
  404dc2:	48 89 98 00 02 00 00 	mov    %rbx,0x200(%rax)
  404dc9:	48 8d 1d d8 65 22 00 	lea    0x2265d8(%rip),%rbx        # 62b3a8 <camlPervasives__104>
  404dd0:	48 89 98 e0 01 00 00 	mov    %rbx,0x1e0(%rax)
  404dd7:	48 8d 1d b2 65 22 00 	lea    0x2265b2(%rip),%rbx        # 62b390 <camlPervasives__103>
  404dde:	48 89 98 c8 01 00 00 	mov    %rbx,0x1c8(%rax)
  404de5:	48 8d 1d 8c 65 22 00 	lea    0x22658c(%rip),%rbx        # 62b378 <camlPervasives__102>
  404dec:	48 89 98 c0 01 00 00 	mov    %rbx,0x1c0(%rax)
  404df3:	48 8d 1d 5e 65 22 00 	lea    0x22655e(%rip),%rbx        # 62b358 <camlPervasives__101>
  404dfa:	48 89 98 b8 01 00 00 	mov    %rbx,0x1b8(%rax)
  404e01:	48 8d 1d 30 65 22 00 	lea    0x226530(%rip),%rbx        # 62b338 <camlPervasives__100>
  404e08:	48 89 98 a8 01 00 00 	mov    %rbx,0x1a8(%rax)
  404e0f:	48 8d 1d 02 65 22 00 	lea    0x226502(%rip),%rbx        # 62b318 <camlPervasives__99>
  404e16:	48 89 98 a0 01 00 00 	mov    %rbx,0x1a0(%rax)
  404e1d:	48 8d 1d d4 64 22 00 	lea    0x2264d4(%rip),%rbx        # 62b2f8 <camlPervasives__98>
  404e24:	48 89 98 78 01 00 00 	mov    %rbx,0x178(%rax)
  404e2b:	48 8d 1d ae 64 22 00 	lea    0x2264ae(%rip),%rbx        # 62b2e0 <camlPervasives__97>
  404e32:	48 89 98 68 01 00 00 	mov    %rbx,0x168(%rax)
  404e39:	e8 6a 4e 01 00       	callq  419ca8 <caml_alloc2>
  404e3e:	49 8d 77 08          	lea    0x8(%r15),%rsi
  404e42:	48 c7 46 f8 00 08 00 	movq   $0x800,-0x8(%rsi)
  404e49:	00 
  404e4a:	48 8d 05 2f 45 22 00 	lea    0x22452f(%rip),%rax        # 629380 <caml_exn_Invalid_argument>
  404e51:	48 89 06             	mov    %rax,(%rsi)
  404e54:	48 8d 05 5d 5b 22 00 	lea    0x225b5d(%rip),%rax        # 62a9b8 <camlPervasives__2>
  404e5b:	48 89 46 08          	mov    %rax,0x8(%rsi)
  404e5f:	48 8d 3d 2a 5b 22 00 	lea    0x225b2a(%rip),%rdi        # 62a990 <camlPervasives__1>
  404e66:	48 8d 05 43 09 01 00 	lea    0x10943(%rip),%rax        # 4157b0 <caml_register_named_value>
  404e6d:	e8 d2 4e 01 00       	callq  419d44 <caml_c_call>
  404e72:	4c 8d 1d 2f 80 22 00 	lea    0x22802f(%rip),%r11        # 62cea8 <caml_young_ptr>
  404e79:	4d 8b 3b             	mov    (%r11),%r15
  404e7c:	48 8d 05 45 64 22 00 	lea    0x226445(%rip),%rax        # 62b2c8 <camlPervasives__96>
  404e83:	48 8d 1d fe 57 22 00 	lea    0x2257fe(%rip),%rbx        # 62a688 <camlPervasives>
  404e8a:	48 89 43 08          	mov    %rax,0x8(%rbx)
  404e8e:	48 8d 05 1b 64 22 00 	lea    0x22641b(%rip),%rax        # 62b2b0 <camlPervasives__95>
  404e95:	48 89 03             	mov    %rax,(%rbx)
  404e98:	48 c7 c7 01 00 00 00 	mov    $0x1,%rdi
  404e9f:	e8 8c 03 01 00       	callq  415230 <caml_fresh_oo_id>
  404ea4:	48 89 c3             	mov    %rax,%rbx
  404ea7:	e8 fc 4d 01 00       	callq  419ca8 <caml_alloc2>
  404eac:	49 8d 47 08          	lea    0x8(%r15),%rax
  404eb0:	48 c7 40 f8 f8 08 00 	movq   $0x8f8,-0x8(%rax)
  404eb7:	00 
  404eb8:	48 8d 3d 19 5b 22 00 	lea    0x225b19(%rip),%rdi        # 62a9d8 <camlPervasives__3>
  404ebf:	48 89 38             	mov    %rdi,(%rax)
  404ec2:	48 89 58 08          	mov    %rbx,0x8(%rax)
  404ec6:	48 8d 1d bb 57 22 00 	lea    0x2257bb(%rip),%rbx        # 62a688 <camlPervasives>
  404ecd:	48 89 43 10          	mov    %rax,0x10(%rbx)
  404ed1:	48 8d 05 b8 63 22 00 	lea    0x2263b8(%rip),%rax        # 62b290 <camlPervasives__94>
  404ed8:	48 89 43 18          	mov    %rax,0x18(%rbx)
  404edc:	48 8d 05 8d 63 22 00 	lea    0x22638d(%rip),%rax        # 62b270 <camlPervasives__93>
  404ee3:	48 89 43 20          	mov    %rax,0x20(%rbx)
  404ee7:	48 8d 05 6a 63 22 00 	lea    0x22636a(%rip),%rax        # 62b258 <camlPervasives__92>
  404eee:	48 89 43 28          	mov    %rax,0x28(%rbx)
  404ef2:	48 8d 05 47 63 22 00 	lea    0x226347(%rip),%rax        # 62b240 <camlPervasives__91>
  404ef9:	48 89 43 40          	mov    %rax,0x40(%rbx)
  404efd:	48 b8 ff ff ff ff ff 	movabs $0x7fffffffffffffff,%rax
  404f04:	ff ff 7f 
  404f07:	48 89 43 30          	mov    %rax,0x30(%rbx)
  404f0b:	48 b8 01 00 00 00 00 	movabs $0x8000000000000001,%rax
  404f12:	00 00 80 
  404f15:	48 89 43 38          	mov    %rax,0x38(%rbx)
  404f19:	48 8d 3d d0 5a 22 00 	lea    0x225ad0(%rip),%rdi        # 62a9f0 <camlPervasives__4>
  404f20:	48 8d 05 a9 61 00 00 	lea    0x61a9(%rip),%rax        # 40b0d0 <caml_int64_float_of_bits>
  404f27:	e8 18 4e 01 00       	callq  419d44 <caml_c_call>
  404f2c:	4c 8d 1d 75 7f 22 00 	lea    0x227f75(%rip),%r11        # 62cea8 <caml_young_ptr>
  404f33:	4d 8b 3b             	mov    (%r11),%r15
  404f36:	48 8d 1d 4b 57 22 00 	lea    0x22574b(%rip),%rbx        # 62a688 <camlPervasives>
  404f3d:	48 89 43 48          	mov    %rax,0x48(%rbx)
  404f41:	48 8d 3d c0 5a 22 00 	lea    0x225ac0(%rip),%rdi        # 62aa08 <camlPervasives__5>
  404f48:	48 8d 05 81 61 00 00 	lea    0x6181(%rip),%rax        # 40b0d0 <caml_int64_float_of_bits>
  404f4f:	e8 f0 4d 01 00       	callq  419d44 <caml_c_call>
  404f54:	4c 8d 1d 4d 7f 22 00 	lea    0x227f4d(%rip),%r11        # 62cea8 <caml_young_ptr>
  404f5b:	4d 8b 3b             	mov    (%r11),%r15
  404f5e:	48 8d 1d 23 57 22 00 	lea    0x225723(%rip),%rbx        # 62a688 <camlPervasives>
  404f65:	48 89 43 50          	mov    %rax,0x50(%rbx)
  404f69:	48 8d 3d b0 5a 22 00 	lea    0x225ab0(%rip),%rdi        # 62aa20 <camlPervasives__6>
  404f70:	48 8d 05 59 61 00 00 	lea    0x6159(%rip),%rax        # 40b0d0 <caml_int64_float_of_bits>
  404f77:	e8 c8 4d 01 00       	callq  419d44 <caml_c_call>
  404f7c:	4c 8d 1d 25 7f 22 00 	lea    0x227f25(%rip),%r11        # 62cea8 <caml_young_ptr>
  404f83:	4d 8b 3b             	mov    (%r11),%r15
  404f86:	48 8d 1d fb 56 22 00 	lea    0x2256fb(%rip),%rbx        # 62a688 <camlPervasives>
  404f8d:	48 89 43 58          	mov    %rax,0x58(%rbx)
  404f91:	48 8d 3d a0 5a 22 00 	lea    0x225aa0(%rip),%rdi        # 62aa38 <camlPervasives__7>
  404f98:	48 8d 05 31 61 00 00 	lea    0x6131(%rip),%rax        # 40b0d0 <caml_int64_float_of_bits>
  404f9f:	e8 a0 4d 01 00       	callq  419d44 <caml_c_call>
  404fa4:	4c 8d 1d fd 7e 22 00 	lea    0x227efd(%rip),%r11        # 62cea8 <caml_young_ptr>
  404fab:	4d 8b 3b             	mov    (%r11),%r15
  404fae:	48 8d 1d d3 56 22 00 	lea    0x2256d3(%rip),%rbx        # 62a688 <camlPervasives>
  404fb5:	48 89 43 60          	mov    %rax,0x60(%rbx)
  404fb9:	48 8d 3d 90 5a 22 00 	lea    0x225a90(%rip),%rdi        # 62aa50 <camlPervasives__8>
  404fc0:	48 8d 05 09 61 00 00 	lea    0x6109(%rip),%rax        # 40b0d0 <caml_int64_float_of_bits>
  404fc7:	e8 78 4d 01 00       	callq  419d44 <caml_c_call>
  404fcc:	4c 8d 1d d5 7e 22 00 	lea    0x227ed5(%rip),%r11        # 62cea8 <caml_young_ptr>
  404fd3:	4d 8b 3b             	mov    (%r11),%r15
  404fd6:	48 8d 1d ab 56 22 00 	lea    0x2256ab(%rip),%rbx        # 62a688 <camlPervasives>
  404fdd:	48 89 43 68          	mov    %rax,0x68(%rbx)
  404fe1:	48 8d 3d 80 5a 22 00 	lea    0x225a80(%rip),%rdi        # 62aa68 <camlPervasives__9>
  404fe8:	48 8d 05 e1 60 00 00 	lea    0x60e1(%rip),%rax        # 40b0d0 <caml_int64_float_of_bits>
  404fef:	e8 50 4d 01 00       	callq  419d44 <caml_c_call>
  404ff4:	4c 8d 1d ad 7e 22 00 	lea    0x227ead(%rip),%r11        # 62cea8 <caml_young_ptr>
  404ffb:	4d 8b 3b             	mov    (%r11),%r15
  404ffe:	48 8d 1d 83 56 22 00 	lea    0x225683(%rip),%rbx        # 62a688 <camlPervasives>
  405005:	48 89 43 70          	mov    %rax,0x70(%rbx)
  405009:	48 8d 05 10 62 22 00 	lea    0x226210(%rip),%rax        # 62b220 <camlPervasives__90>
  405010:	48 89 43 78          	mov    %rax,0x78(%rbx)
  405014:	48 8d 05 ed 61 22 00 	lea    0x2261ed(%rip),%rax        # 62b208 <camlPervasives__89>
  40501b:	48 89 83 80 00 00 00 	mov    %rax,0x80(%rbx)
  405022:	48 8d 05 c7 61 22 00 	lea    0x2261c7(%rip),%rax        # 62b1f0 <camlPervasives__88>
  405029:	48 89 83 88 00 00 00 	mov    %rax,0x88(%rbx)
  405030:	48 8d 05 a1 61 22 00 	lea    0x2261a1(%rip),%rax        # 62b1d8 <camlPervasives__87>
  405037:	48 89 83 90 00 00 00 	mov    %rax,0x90(%rbx)
  40503e:	48 8d 05 7b 61 22 00 	lea    0x22617b(%rip),%rax        # 62b1c0 <camlPervasives__86>
  405045:	48 89 83 98 00 00 00 	mov    %rax,0x98(%rbx)
  40504c:	48 8d 05 55 61 22 00 	lea    0x226155(%rip),%rax        # 62b1a8 <camlPervasives__85>
  405053:	48 89 83 98 02 00 00 	mov    %rax,0x298(%rbx)
  40505a:	48 8d 05 2f 61 22 00 	lea    0x22612f(%rip),%rax        # 62b190 <camlPervasives__84>
  405061:	48 89 83 a0 00 00 00 	mov    %rax,0xa0(%rbx)
  405068:	48 8d 05 01 61 22 00 	lea    0x226101(%rip),%rax        # 62b170 <camlPervasives__83>
  40506f:	48 89 83 a8 00 00 00 	mov    %rax,0xa8(%rbx)
  405076:	48 c7 c7 01 00 00 00 	mov    $0x1,%rdi
  40507d:	48 8d 05 ac 86 00 00 	lea    0x86ac(%rip),%rax        # 40d730 <caml_ml_open_descriptor_in>
  405084:	e8 bb 4c 01 00       	callq  419d44 <caml_c_call>
  405089:	4c 8d 1d 18 7e 22 00 	lea    0x227e18(%rip),%r11        # 62cea8 <caml_young_ptr>
  405090:	4d 8b 3b             	mov    (%r11),%r15
  405093:	48 8d 1d ee 55 22 00 	lea    0x2255ee(%rip),%rbx        # 62a688 <camlPervasives>
  40509a:	48 89 83 b0 00 00 00 	mov    %rax,0xb0(%rbx)
  4050a1:	48 c7 c7 03 00 00 00 	mov    $0x3,%rdi
  4050a8:	48 8d 05 b1 86 00 00 	lea    0x86b1(%rip),%rax        # 40d760 <caml_ml_open_descriptor_out>
  4050af:	e8 90 4c 01 00       	callq  419d44 <caml_c_call>
  4050b4:	4c 8d 1d ed 7d 22 00 	lea    0x227ded(%rip),%r11        # 62cea8 <caml_young_ptr>
  4050bb:	4d 8b 3b             	mov    (%r11),%r15
  4050be:	48 8d 1d c3 55 22 00 	lea    0x2255c3(%rip),%rbx        # 62a688 <camlPervasives>
  4050c5:	48 89 83 b8 00 00 00 	mov    %rax,0xb8(%rbx)
  4050cc:	48 c7 c7 05 00 00 00 	mov    $0x5,%rdi
  4050d3:	48 8d 05 86 86 00 00 	lea    0x8686(%rip),%rax        # 40d760 <caml_ml_open_descriptor_out>
  4050da:	e8 65 4c 01 00       	callq  419d44 <caml_c_call>
  4050df:	4c 8d 1d c2 7d 22 00 	lea    0x227dc2(%rip),%r11        # 62cea8 <caml_young_ptr>
  4050e6:	4d 8b 3b             	mov    (%r11),%r15
  4050e9:	48 8d 1d 98 55 22 00 	lea    0x225598(%rip),%rbx        # 62a688 <camlPervasives>
  4050f0:	48 89 83 c0 00 00 00 	mov    %rax,0xc0(%rbx)
  4050f7:	48 8d 05 52 60 22 00 	lea    0x226052(%rip),%rax        # 62b150 <camlPervasives__82>
  4050fe:	48 89 83 60 01 00 00 	mov    %rax,0x160(%rbx)
  405105:	48 8d 05 2c 60 22 00 	lea    0x22602c(%rip),%rax        # 62b138 <camlPervasives__81>
  40510c:	48 89 83 50 01 00 00 	mov    %rax,0x150(%rbx)
  405113:	48 8d 05 06 60 22 00 	lea    0x226006(%rip),%rax        # 62b120 <camlPervasives__80>
  40511a:	48 89 83 58 01 00 00 	mov    %rax,0x158(%rbx)
  405121:	48 8d 05 e0 5f 22 00 	lea    0x225fe0(%rip),%rax        # 62b108 <camlPervasives__79>
  405128:	48 89 83 70 01 00 00 	mov    %rax,0x170(%rbx)
  40512f:	48 8d 05 b2 5f 22 00 	lea    0x225fb2(%rip),%rax        # 62b0e8 <camlPervasives__78>
  405136:	48 89 83 88 01 00 00 	mov    %rax,0x188(%rbx)
  40513d:	48 8d 05 84 5f 22 00 	lea    0x225f84(%rip),%rax        # 62b0c8 <camlPervasives__77>
  405144:	48 89 83 80 01 00 00 	mov    %rax,0x180(%rbx)
  40514b:	48 8d 05 56 5f 22 00 	lea    0x225f56(%rip),%rax        # 62b0a8 <camlPervasives__76>
  405152:	48 89 83 90 01 00 00 	mov    %rax,0x190(%rbx)
  405159:	48 8d 05 28 5f 22 00 	lea    0x225f28(%rip),%rax        # 62b088 <camlPervasives__75>
  405160:	48 89 83 98 01 00 00 	mov    %rax,0x198(%rbx)
  405167:	48 8d 05 fa 5e 22 00 	lea    0x225efa(%rip),%rax        # 62b068 <camlPervasives__74>
  40516e:	48 89 83 b0 01 00 00 	mov    %rax,0x1b0(%rbx)
  405175:	48 8d 05 d4 5e 22 00 	lea    0x225ed4(%rip),%rax        # 62b050 <camlPervasives__73>
  40517c:	48 89 83 d0 01 00 00 	mov    %rax,0x1d0(%rbx)
  405183:	48 8d 05 ae 5e 22 00 	lea    0x225eae(%rip),%rax        # 62b038 <camlPervasives__72>
  40518a:	48 89 83 d8 01 00 00 	mov    %rax,0x1d8(%rbx)
  405191:	48 8d 05 80 5e 22 00 	lea    0x225e80(%rip),%rax        # 62b018 <camlPervasives__71>
  405198:	48 89 83 f8 01 00 00 	mov    %rax,0x1f8(%rbx)
  40519f:	48 8d 05 5a 5e 22 00 	lea    0x225e5a(%rip),%rax        # 62b000 <camlPervasives__70>
  4051a6:	48 89 83 e8 01 00 00 	mov    %rax,0x1e8(%rbx)
  4051ad:	48 8d 05 34 5e 22 00 	lea    0x225e34(%rip),%rax        # 62afe8 <camlPervasives__69>
  4051b4:	48 89 83 f0 01 00 00 	mov    %rax,0x1f0(%rbx)
  4051bb:	48 8d 05 06 5e 22 00 	lea    0x225e06(%rip),%rax        # 62afc8 <camlPervasives__68>
  4051c2:	48 89 83 10 02 00 00 	mov    %rax,0x210(%rbx)
  4051c9:	48 8d 05 d8 5d 22 00 	lea    0x225dd8(%rip),%rax        # 62afa8 <camlPervasives__67>
  4051d0:	48 89 83 a0 02 00 00 	mov    %rax,0x2a0(%rbx)
  4051d7:	48 8d 05 aa 5d 22 00 	lea    0x225daa(%rip),%rax        # 62af88 <camlPervasives__66>
  4051de:	48 89 83 18 02 00 00 	mov    %rax,0x218(%rbx)
  4051e5:	48 8d 05 7c 5d 22 00 	lea    0x225d7c(%rip),%rax        # 62af68 <camlPervasives__65>
  4051ec:	48 89 83 20 02 00 00 	mov    %rax,0x220(%rbx)
  4051f3:	48 8d 05 56 5d 22 00 	lea    0x225d56(%rip),%rax        # 62af50 <camlPervasives__64>
  4051fa:	48 89 83 08 02 00 00 	mov    %rax,0x208(%rbx)
  405201:	48 8d 05 30 5d 22 00 	lea    0x225d30(%rip),%rax        # 62af38 <camlPervasives__63>
  405208:	48 89 83 60 02 00 00 	mov    %rax,0x260(%rbx)
  40520f:	48 8d 05 0a 5d 22 00 	lea    0x225d0a(%rip),%rax        # 62af20 <camlPervasives__62>
  405216:	48 89 83 c8 00 00 00 	mov    %rax,0xc8(%rbx)
  40521d:	48 8d 05 e4 5c 22 00 	lea    0x225ce4(%rip),%rax        # 62af08 <camlPervasives__61>
  405224:	48 89 83 d0 00 00 00 	mov    %rax,0xd0(%rbx)
  40522b:	48 8d 05 be 5c 22 00 	lea    0x225cbe(%rip),%rax        # 62aef0 <camlPervasives__60>
  405232:	48 89 83 d8 00 00 00 	mov    %rax,0xd8(%rbx)
  405239:	48 8d 05 98 5c 22 00 	lea    0x225c98(%rip),%rax        # 62aed8 <camlPervasives__59>
  405240:	48 89 83 e0 00 00 00 	mov    %rax,0xe0(%rbx)
  405247:	48 8d 05 72 5c 22 00 	lea    0x225c72(%rip),%rax        # 62aec0 <camlPervasives__58>
  40524e:	48 89 83 e8 00 00 00 	mov    %rax,0xe8(%rbx)
  405255:	48 8d 05 4c 5c 22 00 	lea    0x225c4c(%rip),%rax        # 62aea8 <camlPervasives__57>
  40525c:	48 89 83 f0 00 00 00 	mov    %rax,0xf0(%rbx)
  405263:	48 8d 05 26 5c 22 00 	lea    0x225c26(%rip),%rax        # 62ae90 <camlPervasives__56>
  40526a:	48 89 83 f8 00 00 00 	mov    %rax,0xf8(%rbx)
  405271:	48 8d 05 00 5c 22 00 	lea    0x225c00(%rip),%rax        # 62ae78 <camlPervasives__55>
  405278:	48 89 83 00 01 00 00 	mov    %rax,0x100(%rbx)
  40527f:	48 8d 05 da 5b 22 00 	lea    0x225bda(%rip),%rax        # 62ae60 <camlPervasives__54>
  405286:	48 89 83 08 01 00 00 	mov    %rax,0x108(%rbx)
  40528d:	48 8d 05 b4 5b 22 00 	lea    0x225bb4(%rip),%rax        # 62ae48 <camlPervasives__53>
  405294:	48 89 83 10 01 00 00 	mov    %rax,0x110(%rbx)
  40529b:	48 8d 05 8e 5b 22 00 	lea    0x225b8e(%rip),%rax        # 62ae30 <camlPervasives__52>
  4052a2:	48 89 83 18 01 00 00 	mov    %rax,0x118(%rbx)
  4052a9:	48 8d 05 68 5b 22 00 	lea    0x225b68(%rip),%rax        # 62ae18 <camlPervasives__51>
  4052b0:	48 89 83 20 01 00 00 	mov    %rax,0x120(%rbx)
  4052b7:	48 8d 05 42 5b 22 00 	lea    0x225b42(%rip),%rax        # 62ae00 <camlPervasives__50>
  4052be:	48 89 83 28 01 00 00 	mov    %rax,0x128(%rbx)
  4052c5:	48 8d 05 1c 5b 22 00 	lea    0x225b1c(%rip),%rax        # 62ade8 <camlPervasives__49>
  4052cc:	48 89 83 30 01 00 00 	mov    %rax,0x130(%rbx)
  4052d3:	48 8d 05 f6 5a 22 00 	lea    0x225af6(%rip),%rax        # 62add0 <camlPervasives__48>
  4052da:	48 89 83 38 01 00 00 	mov    %rax,0x138(%rbx)
  4052e1:	48 8d 05 d0 5a 22 00 	lea    0x225ad0(%rip),%rax        # 62adb8 <camlPervasives__47>
  4052e8:	48 89 83 40 01 00 00 	mov    %rax,0x140(%rbx)
  4052ef:	48 8d 05 aa 5a 22 00 	lea    0x225aaa(%rip),%rax        # 62ada0 <camlPervasives__46>
  4052f6:	48 89 83 48 01 00 00 	mov    %rax,0x148(%rbx)
  4052fd:	48 c7 c0 48 00 00 00 	mov    $0x48,%rax
  405304:	e8 07 4a 01 00       	callq  419d10 <caml_allocN>
  405309:	49 8d 47 08          	lea    0x8(%r15),%rax
  40530d:	48 c7 40 f8 00 18 00 	movq   $0x1800,-0x8(%rax)
  405314:	00 
  405315:	48 8d 3d e4 59 22 00 	lea    0x2259e4(%rip),%rdi        # 62ad00 <camlPervasives__40>
  40531c:	48 89 38             	mov    %rdi,(%rax)
  40531f:	48 8d 3d fa 59 22 00 	lea    0x2259fa(%rip),%rdi        # 62ad20 <camlPervasives__41>
  405326:	48 89 78 08          	mov    %rdi,0x8(%rax)
  40532a:	48 8d 3d 07 5a 22 00 	lea    0x225a07(%rip),%rdi        # 62ad38 <camlPervasives__42>
  405331:	48 89 78 10          	mov    %rdi,0x10(%rax)
  405335:	48 8d 3d 14 5a 22 00 	lea    0x225a14(%rip),%rdi        # 62ad50 <camlPervasives__43>
  40533c:	48 89 78 18          	mov    %rdi,0x18(%rax)
  405340:	48 8d 3d 29 5a 22 00 	lea    0x225a29(%rip),%rdi        # 62ad70 <camlPervasives__44>
  405347:	48 89 78 20          	mov    %rdi,0x20(%rax)
  40534b:	48 8d 3d 36 5a 22 00 	lea    0x225a36(%rip),%rdi        # 62ad88 <camlPervasives__45>
  405352:	48 89 78 28          	mov    %rdi,0x28(%rax)
  405356:	48 89 83 70 02 00 00 	mov    %rax,0x270(%rbx)
  40535d:	48 8d 3d 84 59 22 00 	lea    0x225984(%rip),%rdi        # 62ace8 <camlPervasives__39>
  405364:	48 89 bb 78 02 00 00 	mov    %rdi,0x278(%rbx)
  40536b:	48 8d 3d 56 59 22 00 	lea    0x225956(%rip),%rdi        # 62acc8 <camlPervasives__38>
  405372:	48 89 bb 80 02 00 00 	mov    %rdi,0x280(%rbx)
  405379:	48 83 c0 38          	add    $0x38,%rax
  40537d:	48 c7 40 f8 00 04 00 	movq   $0x400,-0x8(%rax)
  405384:	00 
  405385:	48 8b bb 70 01 00 00 	mov    0x170(%rbx),%rdi
  40538c:	48 89 38             	mov    %rdi,(%rax)
  40538f:	48 89 83 b0 02 00 00 	mov    %rax,0x2b0(%rbx)
  405396:	48 8d 05 13 59 22 00 	lea    0x225913(%rip),%rax        # 62acb0 <camlPervasives__37>
  40539d:	48 89 83 90 02 00 00 	mov    %rax,0x290(%rbx)
  4053a4:	48 8d 05 ed 58 22 00 	lea    0x2258ed(%rip),%rax        # 62ac98 <camlPervasives__36>
  4053ab:	48 89 83 a8 02 00 00 	mov    %rax,0x2a8(%rbx)
  4053b2:	48 8d 05 c7 58 22 00 	lea    0x2258c7(%rip),%rax        # 62ac80 <camlPervasives__35>
  4053b9:	48 89 83 88 02 00 00 	mov    %rax,0x288(%rbx)
  4053c0:	48 8b b3 a8 02 00 00 	mov    0x2a8(%rbx),%rsi
  4053c7:	48 8d 3d 92 58 22 00 	lea    0x225892(%rip),%rdi        # 62ac60 <camlPervasives__34>
  4053ce:	48 8d 05 db 03 01 00 	lea    0x103db(%rip),%rax        # 4157b0 <caml_register_named_value>
  4053d5:	e8 6a 49 01 00       	callq  419d44 <caml_c_call>
  4053da:	4c 8d 1d c7 7a 22 00 	lea    0x227ac7(%rip),%r11        # 62cea8 <caml_young_ptr>
  4053e1:	4d 8b 3b             	mov    (%r11),%r15
  4053e4:	48 c7 c0 01 00 00 00 	mov    $0x1,%rax
  4053eb:	48 83 c4 08          	add    $0x8,%rsp
  4053ef:	c3                   	retq   

00000000004053f0 <fill_hashtable>:
  4053f0:	48 85 ff             	test   %rdi,%rdi
  4053f3:	0f 84 89 00 00 00    	je     405482 <fill_hashtable+0x92>
  4053f9:	4c 8b 07             	mov    (%rdi),%r8
  4053fc:	45 31 c9             	xor    %r9d,%r9d
  4053ff:	4d 8b 10             	mov    (%r8),%r10
  405402:	49 83 c0 08          	add    $0x8,%r8
  405406:	4d 85 d2             	test   %r10,%r10
  405409:	7e 68                	jle    405473 <fill_hashtable+0x83>
  40540b:	0f 1f 44 00 00       	nopl   0x0(%rax,%rax,1)
  405410:	48 63 35 19 75 22 00 	movslq 0x227519(%rip),%rsi        # 62c930 <caml_frame_descriptors_mask>
  405417:	49 8b 00             	mov    (%r8),%rax
  40541a:	48 8b 0d 17 75 22 00 	mov    0x227517(%rip),%rcx        # 62c938 <caml_frame_descriptors>
  405421:	48 c1 e8 03          	shr    $0x3,%rax
  405425:	48 21 f0             	and    %rsi,%rax
  405428:	48 8d 14 c1          	lea    (%rcx,%rax,8),%rdx
  40542c:	48 83 3a 00          	cmpq   $0x0,(%rdx)
  405430:	74 17                	je     405449 <fill_hashtable+0x59>
  405432:	66 0f 1f 44 00 00    	nopw   0x0(%rax,%rax,1)
  405438:	48 83 c0 01          	add    $0x1,%rax
  40543c:	48 21 f0             	and    %rsi,%rax
  40543f:	48 8d 14 c1          	lea    (%rcx,%rax,8),%rdx
  405443:	48 83 3a 00          	cmpq   $0x0,(%rdx)
  405447:	75 ef                	jne    405438 <fill_hashtable+0x48>
  405449:	4c 89 02             	mov    %r8,(%rdx)
  40544c:	41 0f b7 40 0a       	movzwl 0xa(%r8),%eax
  405451:	49 8d 44 40 13       	lea    0x13(%r8,%rax,2),%rax
  405456:	48 83 e0 f8          	and    $0xfffffffffffffff8,%rax
  40545a:	41 f6 40 08 01       	testb  $0x1,0x8(%r8)
  40545f:	48 8d 50 08          	lea    0x8(%rax),%rdx
  405463:	48 0f 45 c2          	cmovne %rdx,%rax
  405467:	49 83 c1 01          	add    $0x1,%r9
  40546b:	4d 39 ca             	cmp    %r9,%r10
  40546e:	49 89 c0             	mov    %rax,%r8
  405471:	75 9d                	jne    405410 <fill_hashtable+0x20>
  405473:	48 8b 7f 08          	mov    0x8(%rdi),%rdi
  405477:	48 85 ff             	test   %rdi,%rdi
  40547a:	0f 85 79 ff ff ff    	jne    4053f9 <fill_hashtable+0x9>
  405480:	f3 c3                	repz retq 
  405482:	f3 c3                	repz retq 
  405484:	66 90                	xchg   %ax,%ax
  405486:	66 2e 0f 1f 84 00 00 	nopw   %cs:0x0(%rax,%rax,1)
  40548d:	00 00 00 

0000000000405490 <init_frame_descriptors>:
  405490:	48 85 ff             	test   %rdi,%rdi
  405493:	41 54                	push   %r12
  405495:	55                   	push   %rbp
  405496:	48 89 fd             	mov    %rdi,%rbp
  405499:	53                   	push   %rbx
  40549a:	0f 84 36 01 00 00    	je     4055d6 <init_frame_descriptors+0x146>
  4054a0:	49 89 fb             	mov    %rdi,%r11
  4054a3:	eb 06                	jmp    4054ab <init_frame_descriptors+0x1b>
  4054a5:	0f 1f 00             	nopl   (%rax)
  4054a8:	49 89 c3             	mov    %rax,%r11
  4054ab:	49 8b 43 08          	mov    0x8(%r11),%rax
  4054af:	48 85 c0             	test   %rax,%rax
  4054b2:	75 f4                	jne    4054a8 <init_frame_descriptors+0x18>
  4054b4:	48 89 e8             	mov    %rbp,%rax
  4054b7:	31 d2                	xor    %edx,%edx
  4054b9:	0f 1f 80 00 00 00 00 	nopl   0x0(%rax)
  4054c0:	48 8b 08             	mov    (%rax),%rcx
  4054c3:	48 8b 40 08          	mov    0x8(%rax),%rax
  4054c7:	48 03 11             	add    (%rcx),%rdx
  4054ca:	48 85 c0             	test   %rax,%rax
  4054cd:	75 f1                	jne    4054c0 <init_frame_descriptors+0x30>
  4054cf:	48 63 d2             	movslq %edx,%rdx
  4054d2:	48 03 15 a7 74 22 00 	add    0x2274a7(%rip),%rdx        # 62c980 <num_descr>
  4054d9:	8b 05 51 74 22 00    	mov    0x227451(%rip),%eax        # 62c930 <caml_frame_descriptors_mask>
  4054df:	83 c0 01             	add    $0x1,%eax
  4054e2:	48 8d 0c 12          	lea    (%rdx,%rdx,1),%rcx
  4054e6:	48 98                	cltq   
  4054e8:	48 39 c1             	cmp    %rax,%rcx
  4054eb:	0f 8e bf 00 00 00    	jle    4055b0 <init_frame_descriptors+0x120>
  4054f1:	48 8b 05 90 74 22 00 	mov    0x227490(%rip),%rax        # 62c988 <frametables>
  4054f8:	31 d2                	xor    %edx,%edx
  4054fa:	48 c7 05 83 74 22 00 	movq   $0x0,0x227483(%rip)        # 62c988 <frametables>
  405501:	00 00 00 00 
  405505:	49 89 43 08          	mov    %rax,0x8(%r11)
  405509:	48 89 e8             	mov    %rbp,%rax
  40550c:	0f 1f 40 00          	nopl   0x0(%rax)
  405510:	48 8b 08             	mov    (%rax),%rcx
  405513:	48 8b 40 08          	mov    0x8(%rax),%rax
  405517:	48 03 11             	add    (%rcx),%rdx
  40551a:	48 85 c0             	test   %rax,%rax
  40551d:	75 f1                	jne    405510 <init_frame_descriptors+0x80>
  40551f:	48 63 d2             	movslq %edx,%rdx
  405522:	48 89 15 57 74 22 00 	mov    %rdx,0x227457(%rip)        # 62c980 <num_descr>
  405529:	48 01 d2             	add    %rdx,%rdx
  40552c:	48 83 fa 04          	cmp    $0x4,%rdx
  405530:	0f 8e f8 00 00 00    	jle    40562e <init_frame_descriptors+0x19e>
  405536:	bb 04 00 00 00       	mov    $0x4,%ebx
  40553b:	0f 1f 44 00 00       	nopl   0x0(%rax,%rax,1)
  405540:	48 01 db             	add    %rbx,%rbx
  405543:	48 39 d3             	cmp    %rdx,%rbx
  405546:	7c f8                	jl     405540 <init_frame_descriptors+0xb0>
  405548:	8d 43 ff             	lea    -0x1(%rbx),%eax
  40554b:	4c 8d 24 dd 00 00 00 	lea    0x0(,%rbx,8),%r12
  405552:	00 
  405553:	48 8b 3d de 73 22 00 	mov    0x2273de(%rip),%rdi        # 62c938 <caml_frame_descriptors>
  40555a:	89 05 d0 73 22 00    	mov    %eax,0x2273d0(%rip)        # 62c930 <caml_frame_descriptors_mask>
  405560:	48 85 ff             	test   %rdi,%rdi
  405563:	74 05                	je     40556a <init_frame_descriptors+0xda>
  405565:	e8 86 42 00 00       	callq  4097f0 <caml_stat_free>
  40556a:	4c 89 e7             	mov    %r12,%rdi
  40556d:	e8 5e 42 00 00       	callq  4097d0 <caml_stat_alloc>
  405572:	31 d2                	xor    %edx,%edx
  405574:	48 89 05 bd 73 22 00 	mov    %rax,0x2273bd(%rip)        # 62c938 <caml_frame_descriptors>
  40557b:	eb 0a                	jmp    405587 <init_frame_descriptors+0xf7>
  40557d:	0f 1f 00             	nopl   (%rax)
  405580:	48 8b 05 b1 73 22 00 	mov    0x2273b1(%rip),%rax        # 62c938 <caml_frame_descriptors>
  405587:	48 c7 04 d0 00 00 00 	movq   $0x0,(%rax,%rdx,8)
  40558e:	00 
  40558f:	48 83 c2 01          	add    $0x1,%rdx
  405593:	48 39 da             	cmp    %rbx,%rdx
  405596:	75 e8                	jne    405580 <init_frame_descriptors+0xf0>
  405598:	48 89 ef             	mov    %rbp,%rdi
  40559b:	e8 50 fe ff ff       	callq  4053f0 <fill_hashtable>
  4055a0:	5b                   	pop    %rbx
  4055a1:	48 89 2d e0 73 22 00 	mov    %rbp,0x2273e0(%rip)        # 62c988 <frametables>
  4055a8:	5d                   	pop    %rbp
  4055a9:	41 5c                	pop    %r12
  4055ab:	c3                   	retq   
  4055ac:	0f 1f 40 00          	nopl   0x0(%rax)
  4055b0:	48 89 ef             	mov    %rbp,%rdi
  4055b3:	48 89 15 c6 73 22 00 	mov    %rdx,0x2273c6(%rip)        # 62c980 <num_descr>
  4055ba:	e8 31 fe ff ff       	callq  4053f0 <fill_hashtable>
  4055bf:	48 8b 05 c2 73 22 00 	mov    0x2273c2(%rip),%rax        # 62c988 <frametables>
  4055c6:	48 89 2d bb 73 22 00 	mov    %rbp,0x2273bb(%rip)        # 62c988 <frametables>
  4055cd:	49 89 43 08          	mov    %rax,0x8(%r11)
  4055d1:	5b                   	pop    %rbx
  4055d2:	5d                   	pop    %rbp
  4055d3:	41 5c                	pop    %r12
  4055d5:	c3                   	retq   
  4055d6:	48 8b 15 a3 73 22 00 	mov    0x2273a3(%rip),%rdx        # 62c980 <num_descr>
  4055dd:	8b 05 4d 73 22 00    	mov    0x22734d(%rip),%eax        # 62c930 <caml_frame_descriptors_mask>
  4055e3:	45 31 db             	xor    %r11d,%r11d
  4055e6:	83 c0 01             	add    $0x1,%eax
  4055e9:	48 8d 0c 12          	lea    (%rdx,%rdx,1),%rcx
  4055ed:	48 98                	cltq   
  4055ef:	48 39 c1             	cmp    %rax,%rcx
  4055f2:	7e bc                	jle    4055b0 <init_frame_descriptors+0x120>
  4055f4:	48 8b 05 8d 73 22 00 	mov    0x22738d(%rip),%rax        # 62c988 <frametables>
  4055fb:	41 bc 20 00 00 00    	mov    $0x20,%r12d
  405601:	bb 04 00 00 00       	mov    $0x4,%ebx
  405606:	48 89 04 25 08 00 00 	mov    %rax,0x8
  40560d:	00 
  40560e:	48 c7 05 6f 73 22 00 	movq   $0x0,0x22736f(%rip)        # 62c988 <frametables>
  405615:	00 00 00 00 
  405619:	b8 03 00 00 00       	mov    $0x3,%eax
  40561e:	48 c7 05 57 73 22 00 	movq   $0x0,0x227357(%rip)        # 62c980 <num_descr>
  405625:	00 00 00 00 
  405629:	e9 25 ff ff ff       	jmpq   405553 <init_frame_descriptors+0xc3>
  40562e:	41 bc 20 00 00 00    	mov    $0x20,%r12d
  405634:	b8 03 00 00 00       	mov    $0x3,%eax
  405639:	bb 04 00 00 00       	mov    $0x4,%ebx
  40563e:	e9 10 ff ff ff       	jmpq   405553 <init_frame_descriptors+0xc3>
  405643:	0f 1f 00             	nopl   (%rax)
  405646:	66 2e 0f 1f 84 00 00 	nopw   %cs:0x0(%rax,%rax,1)
  40564d:	00 00 00 

0000000000405650 <caml_init_frame_descriptors>:
  405650:	41 54                	push   %r12
  405652:	55                   	push   %rbp
  405653:	53                   	push   %rbx
  405654:	48 8b 1d b5 40 22 00 	mov    0x2240b5(%rip),%rbx        # 629710 <caml_frametable>
  40565b:	48 85 db             	test   %rbx,%rbx
  40565e:	74 3d                	je     40569d <caml_init_frame_descriptors+0x4d>
  405660:	bd 10 97 62 00       	mov    $0x629710,%ebp
  405665:	45 31 e4             	xor    %r12d,%r12d
  405668:	0f 1f 84 00 00 00 00 	nopl   0x0(%rax,%rax,1)
  40566f:	00 
  405670:	48 83 c5 08          	add    $0x8,%rbp
  405674:	bf 10 00 00 00       	mov    $0x10,%edi
  405679:	e8 52 41 00 00       	callq  4097d0 <caml_stat_alloc>
  40567e:	4c 89 60 08          	mov    %r12,0x8(%rax)
  405682:	48 89 18             	mov    %rbx,(%rax)
  405685:	49 89 c4             	mov    %rax,%r12
  405688:	48 8b 5d 00          	mov    0x0(%rbp),%rbx
  40568c:	48 85 db             	test   %rbx,%rbx
  40568f:	75 df                	jne    405670 <caml_init_frame_descriptors+0x20>
  405691:	5b                   	pop    %rbx
  405692:	5d                   	pop    %rbp
  405693:	41 5c                	pop    %r12
  405695:	48 89 c7             	mov    %rax,%rdi
  405698:	e9 f3 fd ff ff       	jmpq   405490 <init_frame_descriptors>
  40569d:	31 c0                	xor    %eax,%eax
  40569f:	eb f0                	jmp    405691 <caml_init_frame_descriptors+0x41>
  4056a1:	0f 1f 44 00 00       	nopl   0x0(%rax,%rax,1)
  4056a6:	66 2e 0f 1f 84 00 00 	nopw   %cs:0x0(%rax,%rax,1)
  4056ad:	00 00 00 

00000000004056b0 <caml_register_frametable>:
  4056b0:	53                   	push   %rbx
  4056b1:	48 89 fb             	mov    %rdi,%rbx
  4056b4:	bf 10 00 00 00       	mov    $0x10,%edi
  4056b9:	e8 12 41 00 00       	callq  4097d0 <caml_stat_alloc>
  4056be:	48 89 18             	mov    %rbx,(%rax)
  4056c1:	48 c7 40 08 00 00 00 	movq   $0x0,0x8(%rax)
  4056c8:	00 
  4056c9:	48 89 c7             	mov    %rax,%rdi
  4056cc:	5b                   	pop    %rbx
  4056cd:	e9 be fd ff ff       	jmpq   405490 <init_frame_descriptors>
  4056d2:	0f 1f 40 00          	nopl   0x0(%rax)
  4056d6:	66 2e 0f 1f 84 00 00 	nopw   %cs:0x0(%rax,%rax,1)
  4056dd:	00 00 00 

00000000004056e0 <caml_unregister_frametable>:
  4056e0:	41 57                	push   %r15
  4056e2:	41 56                	push   %r14
  4056e4:	41 55                	push   %r13
  4056e6:	41 54                	push   %r12
  4056e8:	55                   	push   %rbp
  4056e9:	53                   	push   %rbx
  4056ea:	4c 8b 2f             	mov    (%rdi),%r13
  4056ed:	48 8b 2d 94 72 22 00 	mov    0x227294(%rip),%rbp        # 62c988 <frametables>
  4056f4:	4d 85 ed             	test   %r13,%r13
  4056f7:	0f 8e e6 00 00 00    	jle    4057e3 <caml_unregister_frametable+0x103>
  4056fd:	4c 63 0d 2c 72 22 00 	movslq 0x22722c(%rip),%r9        # 62c930 <caml_frame_descriptors_mask>
  405704:	4c 8b 15 2d 72 22 00 	mov    0x22722d(%rip),%r10        # 62c938 <caml_frame_descriptors>
  40570b:	4c 8d 5f 08          	lea    0x8(%rdi),%r11
  40570f:	31 db                	xor    %ebx,%ebx
  405711:	0f 1f 80 00 00 00 00 	nopl   0x0(%rax)
  405718:	4d 8b 03             	mov    (%r11),%r8
  40571b:	49 c1 e8 03          	shr    $0x3,%r8
  40571f:	4d 21 c8             	and    %r9,%r8
  405722:	4f 39 1c c2          	cmp    %r11,(%r10,%r8,8)
  405726:	74 15                	je     40573d <caml_unregister_frametable+0x5d>
  405728:	0f 1f 84 00 00 00 00 	nopl   0x0(%rax,%rax,1)
  40572f:	00 
  405730:	49 83 c0 01          	add    $0x1,%r8
  405734:	4d 21 c8             	and    %r9,%r8
  405737:	4f 39 1c c2          	cmp    %r11,(%r10,%r8,8)
  40573b:	75 f3                	jne    405730 <caml_unregister_frametable+0x50>
  40573d:	4b c7 04 c2 00 00 00 	movq   $0x0,(%r10,%r8,8)
  405744:	00 
  405745:	4c 63 0d e4 71 22 00 	movslq 0x2271e4(%rip),%r9        # 62c930 <caml_frame_descriptors_mask>
  40574c:	4e 8d 24 c5 00 00 00 	lea    0x0(,%r8,8),%r12
  405753:	00 
  405754:	4c 8b 15 dd 71 22 00 	mov    0x2271dd(%rip),%r10        # 62c938 <caml_frame_descriptors>
  40575b:	4c 89 c0             	mov    %r8,%rax
  40575e:	66 90                	xchg   %ax,%ax
  405760:	48 83 c0 01          	add    $0x1,%rax
  405764:	4c 21 c8             	and    %r9,%rax
  405767:	4d 8b 34 c2          	mov    (%r10,%rax,8),%r14
  40576b:	4d 85 f6             	test   %r14,%r14
  40576e:	74 48                	je     4057b8 <caml_unregister_frametable+0xd8>
  405770:	49 8b 16             	mov    (%r14),%rdx
  405773:	48 c1 ea 03          	shr    $0x3,%rdx
  405777:	4c 21 ca             	and    %r9,%rdx
  40577a:	48 39 d0             	cmp    %rdx,%rax
  40577d:	0f 93 c1             	setae  %cl
  405780:	49 39 c0             	cmp    %rax,%r8
  405783:	40 0f 97 c6          	seta   %sil
  405787:	41 89 cf             	mov    %ecx,%r15d
  40578a:	41 09 f7             	or     %esi,%r15d
  40578d:	49 39 d0             	cmp    %rdx,%r8
  405790:	0f 92 c2             	setb   %dl
  405793:	41 84 d7             	test   %dl,%r15b
  405796:	75 c8                	jne    405760 <caml_unregister_frametable+0x80>
  405798:	84 c9                	test   %cl,%cl
  40579a:	74 05                	je     4057a1 <caml_unregister_frametable+0xc1>
  40579c:	40 84 f6             	test   %sil,%sil
  40579f:	75 bf                	jne    405760 <caml_unregister_frametable+0x80>
  4057a1:	4f 89 34 22          	mov    %r14,(%r10,%r12,1)
  4057a5:	49 89 c0             	mov    %rax,%r8
  4057a8:	4c 8b 15 89 71 22 00 	mov    0x227189(%rip),%r10        # 62c938 <caml_frame_descriptors>
  4057af:	eb 8c                	jmp    40573d <caml_unregister_frametable+0x5d>
  4057b1:	0f 1f 80 00 00 00 00 	nopl   0x0(%rax)
  4057b8:	41 0f b7 43 0a       	movzwl 0xa(%r11),%eax
  4057bd:	49 8d 44 43 13       	lea    0x13(%r11,%rax,2),%rax
  4057c2:	48 83 e0 f8          	and    $0xfffffffffffffff8,%rax
  4057c6:	41 f6 43 08 01       	testb  $0x1,0x8(%r11)
  4057cb:	48 8d 50 08          	lea    0x8(%rax),%rdx
  4057cf:	48 0f 45 c2          	cmovne %rdx,%rax
  4057d3:	48 83 c3 01          	add    $0x1,%rbx
  4057d7:	49 39 dd             	cmp    %rbx,%r13
  4057da:	49 89 c3             	mov    %rax,%r11
  4057dd:	0f 85 35 ff ff ff    	jne    405718 <caml_unregister_frametable+0x38>
  4057e3:	48 85 ed             	test   %rbp,%rbp
  4057e6:	74 19                	je     405801 <caml_unregister_frametable+0x121>
  4057e8:	48 3b 7d 00          	cmp    0x0(%rbp),%rdi
  4057ec:	75 0a                	jne    4057f8 <caml_unregister_frametable+0x118>
  4057ee:	eb 1c                	jmp    40580c <caml_unregister_frametable+0x12c>
  4057f0:	48 3b 38             	cmp    (%rax),%rdi
  4057f3:	74 1a                	je     40580f <caml_unregister_frametable+0x12f>
  4057f5:	48 89 c5             	mov    %rax,%rbp
  4057f8:	48 8b 45 08          	mov    0x8(%rbp),%rax
  4057fc:	48 85 c0             	test   %rax,%rax
  4057ff:	75 ef                	jne    4057f0 <caml_unregister_frametable+0x110>
  405801:	5b                   	pop    %rbx
  405802:	5d                   	pop    %rbp
  405803:	41 5c                	pop    %r12
  405805:	41 5d                	pop    %r13
  405807:	41 5e                	pop    %r14
  405809:	41 5f                	pop    %r15
  40580b:	c3                   	retq   
  40580c:	48 89 e8             	mov    %rbp,%rax
  40580f:	48 8b 50 08          	mov    0x8(%rax),%rdx
  405813:	48 89 c7             	mov    %rax,%rdi
  405816:	48 89 55 08          	mov    %rdx,0x8(%rbp)
  40581a:	5b                   	pop    %rbx
  40581b:	5d                   	pop    %rbp
  40581c:	41 5c                	pop    %r12
  40581e:	41 5d                	pop    %r13
  405820:	41 5e                	pop    %r14
  405822:	41 5f                	pop    %r15
  405824:	e9 c7 3f 00 00       	jmpq   4097f0 <caml_stat_free>
  405829:	0f 1f 80 00 00 00 00 	nopl   0x0(%rax)

0000000000405830 <caml_register_dyn_global>:
  405830:	55                   	push   %rbp
  405831:	53                   	push   %rbx
  405832:	48 89 fd             	mov    %rdi,%rbp
  405835:	bf 10 00 00 00       	mov    $0x10,%edi
  40583a:	48 83 ec 08          	sub    $0x8,%rsp
  40583e:	48 8b 1d 2b 71 22 00 	mov    0x22712b(%rip),%rbx        # 62c970 <caml_dyn_globals>
  405845:	e8 86 3f 00 00       	callq  4097d0 <caml_stat_alloc>
  40584a:	48 89 28             	mov    %rbp,(%rax)
  40584d:	48 89 05 1c 71 22 00 	mov    %rax,0x22711c(%rip)        # 62c970 <caml_dyn_globals>
  405854:	48 89 58 08          	mov    %rbx,0x8(%rax)
  405858:	48 83 c4 08          	add    $0x8,%rsp
  40585c:	5b                   	pop    %rbx
  40585d:	5d                   	pop    %rbp
  40585e:	c3                   	retq   
  40585f:	90                   	nop

0000000000405860 <caml_oldify_local_roots>:
  405860:	48 8b 05 11 71 22 00 	mov    0x227111(%rip),%rax        # 62c978 <caml_globals_scanned>
  405867:	48 8b 0d b2 70 22 00 	mov    0x2270b2(%rip),%rcx        # 62c920 <caml_globals_inited>
  40586e:	41 56                	push   %r14
  405870:	41 55                	push   %r13
  405872:	41 54                	push   %r12
  405874:	55                   	push   %rbp
  405875:	89 c5                	mov    %eax,%ebp
  405877:	48 98                	cltq   
  405879:	53                   	push   %rbx
  40587a:	48 39 c1             	cmp    %rax,%rcx
  40587d:	0f 8c 9f 00 00 00    	jl     405922 <caml_oldify_local_roots+0xc2>
  405883:	0f 1f 44 00 00       	nopl   0x0(%rax,%rax,1)
  405888:	4c 8b 24 c5 48 95 62 	mov    0x629548(,%rax,8),%r12
  40588f:	00 
  405890:	4d 85 e4             	test   %r12,%r12
  405893:	0f 84 89 00 00 00    	je     405922 <caml_oldify_local_roots+0xc2>
  405899:	49 8b 14 24          	mov    (%r12),%rdx
  40589d:	48 85 d2             	test   %rdx,%rdx
  4058a0:	74 71                	je     405913 <caml_oldify_local_roots+0xb3>
  4058a2:	66 0f 1f 44 00 00    	nopw   0x0(%rax,%rax,1)
  4058a8:	48 8b 42 f8          	mov    -0x8(%rdx),%rax
  4058ac:	31 c9                	xor    %ecx,%ecx
  4058ae:	31 db                	xor    %ebx,%ebx
  4058b0:	48 c1 e8 0a          	shr    $0xa,%rax
  4058b4:	48 85 c0             	test   %rax,%rax
  4058b7:	74 46                	je     4058ff <caml_oldify_local_roots+0x9f>
  4058b9:	0f 1f 80 00 00 00 00 	nopl   0x0(%rax)
  4058c0:	48 8d 34 ca          	lea    (%rdx,%rcx,8),%rsi
  4058c4:	48 8b 3e             	mov    (%rsi),%rdi
  4058c7:	40 f6 c7 01          	test   $0x1,%dil
  4058cb:	75 1b                	jne    4058e8 <caml_oldify_local_roots+0x88>
  4058cd:	48 3b 3d f4 75 22 00 	cmp    0x2275f4(%rip),%rdi        # 62cec8 <caml_young_end>
  4058d4:	73 12                	jae    4058e8 <caml_oldify_local_roots+0x88>
  4058d6:	48 3b 3d f3 75 22 00 	cmp    0x2275f3(%rip),%rdi        # 62ced0 <caml_young_start>
  4058dd:	76 09                	jbe    4058e8 <caml_oldify_local_roots+0x88>
  4058df:	e8 5c 27 00 00       	callq  408040 <caml_oldify_one>
  4058e4:	0f 1f 40 00          	nopl   0x0(%rax)
  4058e8:	49 8b 14 24          	mov    (%r12),%rdx
  4058ec:	83 c3 01             	add    $0x1,%ebx
  4058ef:	48 63 cb             	movslq %ebx,%rcx
  4058f2:	48 8b 42 f8          	mov    -0x8(%rdx),%rax
  4058f6:	48 c1 e8 0a          	shr    $0xa,%rax
  4058fa:	48 39 c1             	cmp    %rax,%rcx
  4058fd:	72 c1                	jb     4058c0 <caml_oldify_local_roots+0x60>
  4058ff:	49 83 c4 08          	add    $0x8,%r12
  405903:	49 8b 14 24          	mov    (%r12),%rdx
  405907:	48 85 d2             	test   %rdx,%rdx
  40590a:	75 9c                	jne    4058a8 <caml_oldify_local_roots+0x48>
  40590c:	48 8b 0d 0d 70 22 00 	mov    0x22700d(%rip),%rcx        # 62c920 <caml_globals_inited>
  405913:	83 c5 01             	add    $0x1,%ebp
  405916:	48 63 c5             	movslq %ebp,%rax
  405919:	48 39 c8             	cmp    %rcx,%rax
  40591c:	0f 8e 66 ff ff ff    	jle    405888 <caml_oldify_local_roots+0x28>
  405922:	48 8b 2d 47 70 22 00 	mov    0x227047(%rip),%rbp        # 62c970 <caml_dyn_globals>
  405929:	48 89 0d 48 70 22 00 	mov    %rcx,0x227048(%rip)        # 62c978 <caml_globals_scanned>
  405930:	48 85 ed             	test   %rbp,%rbp
  405933:	0f 84 88 00 00 00    	je     4059c1 <caml_oldify_local_roots+0x161>
  405939:	4c 8b 65 00          	mov    0x0(%rbp),%r12
  40593d:	49 8b 14 24          	mov    (%r12),%rdx
  405941:	48 85 d2             	test   %rdx,%rdx
  405944:	74 6e                	je     4059b4 <caml_oldify_local_roots+0x154>
  405946:	66 2e 0f 1f 84 00 00 	nopw   %cs:0x0(%rax,%rax,1)
  40594d:	00 00 00 
  405950:	48 8b 42 f8          	mov    -0x8(%rdx),%rax
  405954:	31 c9                	xor    %ecx,%ecx
  405956:	31 db                	xor    %ebx,%ebx
  405958:	48 c1 e8 0a          	shr    $0xa,%rax
  40595c:	48 85 c0             	test   %rax,%rax
  40595f:	74 46                	je     4059a7 <caml_oldify_local_roots+0x147>
  405961:	0f 1f 80 00 00 00 00 	nopl   0x0(%rax)
  405968:	48 8d 34 ca          	lea    (%rdx,%rcx,8),%rsi
  40596c:	48 8b 3e             	mov    (%rsi),%rdi
  40596f:	40 f6 c7 01          	test   $0x1,%dil
  405973:	75 1b                	jne    405990 <caml_oldify_local_roots+0x130>
  405975:	48 3b 3d 4c 75 22 00 	cmp    0x22754c(%rip),%rdi        # 62cec8 <caml_young_end>
  40597c:	73 12                	jae    405990 <caml_oldify_local_roots+0x130>
  40597e:	48 3b 3d 4b 75 22 00 	cmp    0x22754b(%rip),%rdi        # 62ced0 <caml_young_start>
  405985:	76 09                	jbe    405990 <caml_oldify_local_roots+0x130>
  405987:	e8 b4 26 00 00       	callq  408040 <caml_oldify_one>
  40598c:	0f 1f 40 00          	nopl   0x0(%rax)
  405990:	49 8b 14 24          	mov    (%r12),%rdx
  405994:	83 c3 01             	add    $0x1,%ebx
  405997:	48 63 cb             	movslq %ebx,%rcx
  40599a:	48 8b 42 f8          	mov    -0x8(%rdx),%rax
  40599e:	48 c1 e8 0a          	shr    $0xa,%rax
  4059a2:	48 39 c1             	cmp    %rax,%rcx
  4059a5:	72 c1                	jb     405968 <caml_oldify_local_roots+0x108>
  4059a7:	49 83 c4 08          	add    $0x8,%r12
  4059ab:	49 8b 14 24          	mov    (%r12),%rdx
  4059af:	48 85 d2             	test   %rdx,%rdx
  4059b2:	75 9c                	jne    405950 <caml_oldify_local_roots+0xf0>
  4059b4:	48 8b 6d 08          	mov    0x8(%rbp),%rbp
  4059b8:	48 85 ed             	test   %rbp,%rbp
  4059bb:	0f 85 78 ff ff ff    	jne    405939 <caml_oldify_local_roots+0xd9>
  4059c1:	4c 8b 25 60 6f 22 00 	mov    0x226f60(%rip),%r12        # 62c928 <caml_bottom_of_stack>
  4059c8:	48 8b 15 99 6c 22 00 	mov    0x226c99(%rip),%rdx        # 62c668 <caml_last_return_address>
  4059cf:	4c 8b 2d 02 ba 23 00 	mov    0x23ba02(%rip),%r13        # 6413d8 <caml_gc_regs>
  4059d6:	4d 85 e4             	test   %r12,%r12
  4059d9:	0f 84 f1 00 00 00    	je     405ad0 <caml_oldify_local_roots+0x270>
  4059df:	48 63 0d 4a 6f 22 00 	movslq 0x226f4a(%rip),%rcx        # 62c930 <caml_frame_descriptors_mask>
  4059e6:	48 8b 35 4b 6f 22 00 	mov    0x226f4b(%rip),%rsi        # 62c938 <caml_frame_descriptors>
  4059ed:	0f 1f 00             	nopl   (%rax)
  4059f0:	48 89 d0             	mov    %rdx,%rax
  4059f3:	48 c1 e8 03          	shr    $0x3,%rax
  4059f7:	48 21 c8             	and    %rcx,%rax
  4059fa:	48 8b 2c c6          	mov    (%rsi,%rax,8),%rbp
  4059fe:	48 3b 55 00          	cmp    0x0(%rbp),%rdx
  405a02:	74 15                	je     405a19 <caml_oldify_local_roots+0x1b9>
  405a04:	0f 1f 40 00          	nopl   0x0(%rax)
  405a08:	48 83 c0 01          	add    $0x1,%rax
  405a0c:	48 21 c8             	and    %rcx,%rax
  405a0f:	48 8b 2c c6          	mov    (%rsi,%rax,8),%rbp
  405a13:	48 3b 55 00          	cmp    0x0(%rbp),%rdx
  405a17:	75 ef                	jne    405a08 <caml_oldify_local_roots+0x1a8>
  405a19:	0f b7 45 08          	movzwl 0x8(%rbp),%eax
  405a1d:	66 83 f8 ff          	cmp    $0xffff,%ax
  405a21:	0f 84 8d 00 00 00    	je     405ab4 <caml_oldify_local_roots+0x254>
  405a27:	0f b7 55 0a          	movzwl 0xa(%rbp),%edx
  405a2b:	48 8d 5d 0c          	lea    0xc(%rbp),%rbx
  405a2f:	66 85 d2             	test   %dx,%dx
  405a32:	74 6e                	je     405aa2 <caml_oldify_local_roots+0x242>
  405a34:	8d 42 ff             	lea    -0x1(%rdx),%eax
  405a37:	4c 8d 74 43 02       	lea    0x2(%rbx,%rax,2),%r14
  405a3c:	eb 3b                	jmp    405a79 <caml_oldify_local_roots+0x219>
  405a3e:	66 90                	xchg   %ax,%ax
  405a40:	48 c1 e6 02          	shl    $0x2,%rsi
  405a44:	81 e6 f8 ff 03 00    	and    $0x3fff8,%esi
  405a4a:	4c 01 ee             	add    %r13,%rsi
  405a4d:	48 8b 3e             	mov    (%rsi),%rdi
  405a50:	40 f6 c7 01          	test   $0x1,%dil
  405a54:	75 1a                	jne    405a70 <caml_oldify_local_roots+0x210>
  405a56:	48 3b 3d 6b 74 22 00 	cmp    0x22746b(%rip),%rdi        # 62cec8 <caml_young_end>
  405a5d:	73 11                	jae    405a70 <caml_oldify_local_roots+0x210>
  405a5f:	48 3b 3d 6a 74 22 00 	cmp    0x22746a(%rip),%rdi        # 62ced0 <caml_young_start>
  405a66:	76 08                	jbe    405a70 <caml_oldify_local_roots+0x210>
  405a68:	e8 d3 25 00 00       	callq  408040 <caml_oldify_one>
  405a6d:	0f 1f 00             	nopl   (%rax)
  405a70:	48 83 c3 02          	add    $0x2,%rbx
  405a74:	4c 39 f3             	cmp    %r14,%rbx
  405a77:	74 17                	je     405a90 <caml_oldify_local_roots+0x230>
  405a79:	0f b7 33             	movzwl (%rbx),%esi
  405a7c:	40 f6 c6 01          	test   $0x1,%sil
  405a80:	75 be                	jne    405a40 <caml_oldify_local_roots+0x1e0>
  405a82:	4c 01 e6             	add    %r12,%rsi
  405a85:	eb c6                	jmp    405a4d <caml_oldify_local_roots+0x1ed>
  405a87:	66 0f 1f 84 00 00 00 	nopw   0x0(%rax,%rax,1)
  405a8e:	00 00 
  405a90:	0f b7 45 08          	movzwl 0x8(%rbp),%eax
  405a94:	48 63 0d 95 6e 22 00 	movslq 0x226e95(%rip),%rcx        # 62c930 <caml_frame_descriptors_mask>
  405a9b:	48 8b 35 96 6e 22 00 	mov    0x226e96(%rip),%rsi        # 62c938 <caml_frame_descriptors>
  405aa2:	25 fc ff 00 00       	and    $0xfffc,%eax
  405aa7:	49 01 c4             	add    %rax,%r12
  405aaa:	49 8b 54 24 f8       	mov    -0x8(%r12),%rdx
  405aaf:	e9 3c ff ff ff       	jmpq   4059f0 <caml_oldify_local_roots+0x190>
  405ab4:	49 8b 44 24 10       	mov    0x10(%r12),%rax
  405ab9:	49 8b 54 24 18       	mov    0x18(%r12),%rdx
  405abe:	4d 8b 6c 24 20       	mov    0x20(%r12),%r13
  405ac3:	48 85 c0             	test   %rax,%rax
  405ac6:	74 08                	je     405ad0 <caml_oldify_local_roots+0x270>
  405ac8:	49 89 c4             	mov    %rax,%r12
  405acb:	e9 20 ff ff ff       	jmpq   4059f0 <caml_oldify_local_roots+0x190>
  405ad0:	48 8b 2d 71 6e 22 00 	mov    0x226e71(%rip),%rbp        # 62c948 <caml_local_roots>
  405ad7:	48 85 ed             	test   %rbp,%rbp
  405ada:	74 76                	je     405b52 <caml_oldify_local_roots+0x2f2>
  405adc:	45 31 ed             	xor    %r13d,%r13d
  405adf:	48 83 7d 08 00       	cmpq   $0x0,0x8(%rbp)
  405ae4:	7e 63                	jle    405b49 <caml_oldify_local_roots+0x2e9>
  405ae6:	66 2e 0f 1f 84 00 00 	nopw   %cs:0x0(%rax,%rax,1)
  405aed:	00 00 00 
  405af0:	31 db                	xor    %ebx,%ebx
  405af2:	31 c0                	xor    %eax,%eax
  405af4:	48 83 7d 10 00       	cmpq   $0x0,0x10(%rbp)
  405af9:	4d 63 e5             	movslq %r13d,%r12
  405afc:	7e 3e                	jle    405b3c <caml_oldify_local_roots+0x2dc>
  405afe:	66 90                	xchg   %ax,%ax
  405b00:	4a 8b 54 e5 18       	mov    0x18(%rbp,%r12,8),%rdx
  405b05:	48 8d 34 c2          	lea    (%rdx,%rax,8),%rsi
  405b09:	48 8b 3e             	mov    (%rsi),%rdi
  405b0c:	40 f6 c7 01          	test   $0x1,%dil
  405b10:	75 1e                	jne    405b30 <caml_oldify_local_roots+0x2d0>
  405b12:	48 3b 3d af 73 22 00 	cmp    0x2273af(%rip),%rdi        # 62cec8 <caml_young_end>
  405b19:	73 15                	jae    405b30 <caml_oldify_local_roots+0x2d0>
  405b1b:	48 3b 3d ae 73 22 00 	cmp    0x2273ae(%rip),%rdi        # 62ced0 <caml_young_start>
  405b22:	76 0c                	jbe    405b30 <caml_oldify_local_roots+0x2d0>
  405b24:	e8 17 25 00 00       	callq  408040 <caml_oldify_one>
  405b29:	0f 1f 80 00 00 00 00 	nopl   0x0(%rax)
  405b30:	83 c3 01             	add    $0x1,%ebx
  405b33:	48 63 c3             	movslq %ebx,%rax
  405b36:	48 3b 45 10          	cmp    0x10(%rbp),%rax
  405b3a:	7c c4                	jl     405b00 <caml_oldify_local_roots+0x2a0>
  405b3c:	41 83 c5 01          	add    $0x1,%r13d
  405b40:	4d 63 e5             	movslq %r13d,%r12
  405b43:	4c 3b 65 08          	cmp    0x8(%rbp),%r12
  405b47:	7c a7                	jl     405af0 <caml_oldify_local_roots+0x290>
  405b49:	48 8b 6d 00          	mov    0x0(%rbp),%rbp
  405b4d:	48 85 ed             	test   %rbp,%rbp
  405b50:	75 8a                	jne    405adc <caml_oldify_local_roots+0x27c>
  405b52:	bf 40 80 40 00       	mov    $0x408040,%edi
  405b57:	e8 d4 09 00 00       	callq  406530 <caml_scan_global_young_roots>
  405b5c:	31 c0                	xor    %eax,%eax
  405b5e:	e8 6d 2c 01 00       	callq  4187d0 <caml_final_oldify_young_roots>
  405b63:	48 8b 05 d6 6d 22 00 	mov    0x226dd6(%rip),%rax        # 62c940 <caml_scan_roots_hook>
  405b6a:	48 85 c0             	test   %rax,%rax
  405b6d:	74 0f                	je     405b7e <caml_oldify_local_roots+0x31e>
  405b6f:	5b                   	pop    %rbx
  405b70:	5d                   	pop    %rbp
  405b71:	41 5c                	pop    %r12
  405b73:	41 5d                	pop    %r13
  405b75:	41 5e                	pop    %r14
  405b77:	bf 40 80 40 00       	mov    $0x408040,%edi
  405b7c:	ff e0                	jmpq   *%rax
  405b7e:	5b                   	pop    %rbx
  405b7f:	5d                   	pop    %rbp
  405b80:	41 5c                	pop    %r12
  405b82:	41 5d                	pop    %r13
  405b84:	41 5e                	pop    %r14
  405b86:	c3                   	retq   
  405b87:	66 0f 1f 84 00 00 00 	nopw   0x0(%rax,%rax,1)
  405b8e:	00 00 

0000000000405b90 <caml_darken_all_roots_slice>:
  405b90:	55                   	push   %rbp
  405b91:	53                   	push   %rbx
  405b92:	48 89 fb             	mov    %rdi,%rbx
  405b95:	48 83 ec 08          	sub    $0x8,%rsp
  405b99:	8b 15 cd 6d 22 00    	mov    0x226dcd(%rip),%edx        # 62c96c <do_resume.4179>
  405b9f:	85 d2                	test   %edx,%edx
  405ba1:	0f 85 b1 00 00 00    	jne    405c58 <caml_darken_all_roots_slice+0xc8>
  405ba7:	48 63 d2             	movslq %edx,%rdx
  405baa:	c7 05 b4 6d 22 00 00 	movl   $0x0,0x226db4(%rip)        # 62c968 <i.4176>
  405bb1:	00 00 00 
  405bb4:	48 89 fd             	mov    %rdi,%rbp
  405bb7:	48 8b 14 d5 48 95 62 	mov    0x629548(,%rdx,8),%rdx
  405bbe:	00 
  405bbf:	48 85 d2             	test   %rdx,%rdx
  405bc2:	74 5e                	je     405c22 <caml_darken_all_roots_slice+0x92>
  405bc4:	48 8b 3a             	mov    (%rdx),%rdi
  405bc7:	48 89 15 92 6d 22 00 	mov    %rdx,0x226d92(%rip)        # 62c960 <glob.4178>
  405bce:	48 85 ff             	test   %rdi,%rdi
  405bd1:	74 30                	je     405c03 <caml_darken_all_roots_slice+0x73>
  405bd3:	48 8b 77 f8          	mov    -0x8(%rdi),%rsi
  405bd7:	31 c9                	xor    %ecx,%ecx
  405bd9:	c7 05 75 6d 22 00 00 	movl   $0x0,0x226d75(%rip)        # 62c958 <j.4177>
  405be0:	00 00 00 
  405be3:	48 c1 ee 0a          	shr    $0xa,%rsi
  405be7:	48 39 ce             	cmp    %rcx,%rsi
  405bea:	0f 87 98 00 00 00    	ja     405c88 <caml_darken_all_roots_slice+0xf8>
  405bf0:	48 83 c2 08          	add    $0x8,%rdx
  405bf4:	48 8b 3a             	mov    (%rdx),%rdi
  405bf7:	48 89 15 62 6d 22 00 	mov    %rdx,0x226d62(%rip)        # 62c960 <glob.4178>
  405bfe:	48 85 ff             	test   %rdi,%rdi
  405c01:	75 d0                	jne    405bd3 <caml_darken_all_roots_slice+0x43>
  405c03:	8b 05 5f 6d 22 00    	mov    0x226d5f(%rip),%eax        # 62c968 <i.4176>
  405c09:	8d 50 01             	lea    0x1(%rax),%edx
  405c0c:	89 15 56 6d 22 00    	mov    %edx,0x226d56(%rip)        # 62c968 <i.4176>
  405c12:	48 63 d2             	movslq %edx,%rdx
  405c15:	48 8b 14 d5 48 95 62 	mov    0x629548(,%rdx,8),%rdx
  405c1c:	00 
  405c1d:	48 85 d2             	test   %rdx,%rdx
  405c20:	75 a2                	jne    405bc4 <caml_darken_all_roots_slice+0x34>
  405c22:	48 03 1d 27 6d 22 00 	add    0x226d27(%rip),%rbx        # 62c950 <roots_count.4180>
  405c29:	c7 05 39 6d 22 00 00 	movl   $0x0,0x226d39(%rip)        # 62c96c <do_resume.4179>
  405c30:	00 00 00 
  405c33:	48 89 e8             	mov    %rbp,%rax
  405c36:	48 c7 05 0f 6d 22 00 	movq   $0x0,0x226d0f(%rip)        # 62c950 <roots_count.4180>
  405c3d:	00 00 00 00 
  405c41:	48 29 eb             	sub    %rbp,%rbx
  405c44:	48 89 1d cd 6c 22 00 	mov    %rbx,0x226ccd(%rip)        # 62c918 <caml_incremental_roots_count>
  405c4b:	48 83 c4 08          	add    $0x8,%rsp
  405c4f:	5b                   	pop    %rbx
  405c50:	5d                   	pop    %rbp
  405c51:	c3                   	retq   
  405c52:	66 0f 1f 44 00 00    	nopw   0x0(%rax,%rax,1)
  405c58:	48 89 fd             	mov    %rdi,%rbp
  405c5b:	8b 05 f7 6c 22 00    	mov    0x226cf7(%rip),%eax        # 62c958 <j.4177>
